ARM Linker, 4.1 [Build 481] [Standard]

==============================================================================

Section Cross References

    main.o(.text) refers to lcd.o(.text) for LCDPutLOGOBmp
    main.o(.text) refers to key.o(.text) for InitKeyboard
    main.o(.text) refers to uart0.o(.text) for InitUart0
    main.o(.text) refers to uart2.o(.text) for InitUart2
    main.o(.text) refers to uart3.o(.text) for InitUart3
    main.o(.text) refers to buzzer.o(.text) for InitBuzzer
    main.o(.text) refers to timer.o(.text) for InitTimer
    main.o(.text) refers to rtc.o(.text) for InitRtc
    main.o(.text) refers to at45db161d.o(.text) for InitAT45DB
    main.o(.text) refers to common.o(.text) for LoadDefaultSystemPara
    main.o(.text) refers to uart1.o(.text) for InitUart1
    main.o(.text) refers to os_task.o(.text) for OSTaskCreate
    main.o(.text) refers to os_time.o(.text) for OSTimeDly
    main.o(.text) refers to taskuart0device.o(.text) for pcControlInit
    main.o(.text) refers to coinaccepterapi .o(.text) for CoinDevInitAPI
    main.o(.text) refers to billaccepterapi.o(.text) for BillDevInitAPI
    main.o(.text) refers to changerapi.o(.text) for ChangerDevInitAPI
    main.o(.text) refers to readerapi.o(.text) for ReaderDevInitAPI
    main.o(.text) refers to channelapi.o(.text) for ChannelGetFlashData
    main.o(.text) refers to os_sem.o(.text) for OSSemPend
    main.o(.text) refers to logapi.o(.text) for ReadLogAPI
    main.o(.text) refers to rt_memclr_w.o(.text) for __aeabi_memclr4
    main.o(.text) refers to selectkeyapi.o(.text) for SelectInitAPI
    main.o(.text) refers to pccomapi.o(.text) for PCInitAPI
    main.o(.text) refers to business.o(.text) for BusinessProcess
    main.o(.text) refers to target.o(.text) for targetInit
    main.o(.text) refers to lpc1700pincfg.o(.text) for pinInit
    main.o(.text) refers to os_core.o(.text) for OSInit
    main.o(.text) refers to main.o(.bss) for SystemPara
    main.o(.text) refers to taskdevice.o(.text) for Uart2TaskDevice
    main.o(.text) refers to common.o(.data) for g_DeviceSem
    main.o(.text) refers to taskuart1device.o(.text) for Uart1TaskDevice
    main.o(.text) refers to taskuart3device.o(.text) for Uart3TaskDevice
    business.o(.text) refers to _printf_percent.o(.ARM.Collect$$_printf_percent$$00000000) for _printf_percent
    business.o(.text) refers to _printf_d.o(.ARM.Collect$$_printf_percent$$00000009) for _printf_d
    business.o(.text) refers to _printf_dec.o(.text) for _printf_int_dec
    business.o(.text) refers to _printf_pad.o(.text) for _printf_pre_padding
    business.o(.text) refers to _printf_s.o(.ARM.Collect$$_printf_percent$$00000014) for _printf_s
    business.o(.text) refers to _printf_str.o(.text) for _printf_str
    business.o(.text) refers to lcd.o(.text) for LCDDrawLine
    business.o(.text) refers to strlen.o(.text) for strlen
    business.o(.text) refers to rt_memclr_w.o(.text) for __aeabi_memclr4
    business.o(.text) refers to rtc.o(.text) for RTCReadTime
    business.o(.text) refers to os_time.o(.text) for OSTimeDly
    business.o(.text) refers to strcpy.o(.text) for strcpy
    business.o(.text) refers to __2sprintf.o(.text) for __2sprintf
    business.o(.text) refers to main.o(.bss) for SystemPara
    business.o(.text) refers to main.o(.data) for RTCData
    business.o(.text) refers to business.o(.data) for vmcChangeLow
    business.o(.text) refers to language.o(.data) for BUSINESSERROR
    business.o(.text) refers to xmt.o(.bss) for sysXMTMission
    business.o(.text) refers to os_mbox.o(.text) for OSMboxAccept
    business.o(.text) refers to strcat.o(.text) for strcat
    business.o(.text) refers to channelapi.o(.text) for ChannelCheckIsOk
    business.o(.text) refers to pccomapi.o(.text) for ButtonRPTAPI
    business.o(.text) refers to common.o(.data) for g_CoinMoneyBackMail
    business.o(.text) refers to traceapi.o(.text) for TracePC
    business.o(.text) refers to billaccepterapi.o(.text) for BillDevEnableAPI
    business.o(.text) refers to checkdevicestate.o(.text) for SetBillCoinStatus
    business.o(.text) refers to coinaccepterapi .o(.text) for CoinDevEnableAPI
    business.o(.text) refers to readerapi.o(.text) for ReaderDevEnableAPI
    business.o(.text) refers to common.o(.bss) for DeviceStateBusiness
    business.o(.text) refers to logapi.o(.text) for LogGetMoneyAPI
    business.o(.text) refers to business.o(.constdata) for .constdata
    business.o(.text) refers to changerapi.o(.text) for ChangerDevPayoutAPI
    business.o(.text) refers to selectkeyapi.o(.text) for SaleSelectionKeyAPI
    business.o(.text) refers to channel.o(.text) for ChannelAPIProcess
    business.o(.text) refers to uart0.o(.text) for Trace
    business.o(.text) refers to mdb_uart2.o(.text) for MdbBusHardwareReset
    business.o(.text) refers to key.o(.text) for ReadMaintainKeyValue
    business.o(.text) refers to taskuart0device.o(.text) for mainTaskPollPC
    business.o(.text) refers to tuibiapi.o(.text) for ClrTuibiAPI
    business.o(.text) refers to acdc.o(.text) for ACDCTimingHandle
    business.o(.text) refers to zhihuiapi.o(.text) for pollHuman
    business.o(.text) refers to maintain.o(.text) for MaintainUserProcess
    maintain.o(.text) refers to lcd.o(.text) for LCDClrScreen
    maintain.o(.text) refers to uart0.o(.text) for Trace
    maintain.o(.text) refers to key.o(.text) for ReadKeyValue
    maintain.o(.text) refers to os_time.o(.text) for OSTimeDly
    maintain.o(.text) refers to checkdevicestate.o(.text) for HopperIsEmpty
    maintain.o(.text) refers to traceapi.o(.text) for TracePC
    maintain.o(.text) refers to main.o(.bss) for SystemPara
    maintain.o(.text) refers to maintain.o(.constdata) for PasswordMenuList
    maintain.o(.text) refers to strlen.o(.text) for strlen
    maintain.o(.text) refers to common.o(.bss) for DeviceStateBusiness
    maintain.o(.text) refers to zhihuiapi.o(.text) for pc_trade_info_clear
    maintain.o(.text) refers to logapi.o(.text) for LogClearAPI
    maintain.o(.text) refers to channel.o(.text) for ChannelClearSuccesCount
    maintain.o(.text) refers to maintain.o(.data) for LogMaintainMainMenu
    maintain.o(.text) refers to pccomapi.o(.text) for AdminRPTAPI
    maintain.o(.text) refers to rtc.o(.text) for RTCReadTime
    maintain.o(.text) refers to main.o(.data) for RTCData
    maintain.o(.text) refers to common.o(.text) for PrintfMoney
    maintain.o(.text) refers to strcpy.o(.text) for strcpy
    maintain.o(.text) refers to changerapi.o(.text) for ChangerDevPayoutAPI
    maintain.o(.text) refers to coinaccepterapi .o(.text) for CoinDevEnableAPI
    maintain.o(.text) refers to billaccepterapi.o(.text) for BillDevEnableAPI
    maintain.o(.text) refers to rt_memcpy_v6.o(.text) for __aeabi_memcpy
    maintain.o(.text) refers to rt_memcpy_w.o(.text) for __aeabi_memcpy4
    maintain.o(.text) refers to acdc.o(.text) for acdc_controlHot
    maintain.o(.text) refers to tuibiapi.o(.text) for IsTuibiAPI
    maintain.o(.text) refers to selectkeyapi.o(.text) for FreeSelectionKeyAPI
    maintain.o(.text) refers to readerapi.o(.text) for ReaderDevEnableAPI
    maintain.o(.text) refers to fs_billchanger.o(.text) for FS_init
    maintain.o(.constdata) refers to maintain.o(.conststring) for .conststring
    common.o(.text) refers to _printf_pad.o(.text) for _printf_pre_padding
    common.o(.text) refers to _printf_percent.o(.ARM.Collect$$_printf_percent$$00000000) for _printf_percent
    common.o(.text) refers to _printf_d.o(.ARM.Collect$$_printf_percent$$00000009) for _printf_d
    common.o(.text) refers to _printf_dec.o(.text) for _printf_int_dec
    common.o(.text) refers to os_sem.o(.text) for OSSemCreate
    common.o(.text) refers to os_q.o(.text) for OSQCreate
    common.o(.text) refers to os_mbox.o(.text) for OSMboxCreate
    common.o(.text) refers to rt_memclr_w.o(.text) for __aeabi_memclr4
    common.o(.text) refers to common.o(.data) for g_DeviceSem
    common.o(.text) refers to common.o(.bss) for BillMoneyQ
    common.o(.text) refers to main.o(.bss) for SystemPara
    common.o(.text) refers to uart0.o(.text) for Trace
    common.o(.text) refers to at45db161d.o(.text) for AT45DBWritePage
    common.o(.text) refers to rt_memclr.o(.text) for __aeabi_memclr
    common.o(.text) refers to lcd.o(.text) for LCDNumberFontPrintf
    common.o(.text) refers to os_time.o(.text) for OSTimeDly
    common.o(.text) refers to channelapi.o(.text) for hd_read_param_bak
    common.o(.text) refers to rt_memcpy_w.o(.text) for __aeabi_memcpy4
    common.o(.text) refers to rt_memcpy_v6.o(.text) for __aeabi_memcpy
    common.o(.text) refers to __2sprintf.o(.text) for __2sprintf
    common.o(.text) refers to common.o(.constdata) for MAINTAINPASSWORD
    language.o(.data) refers to language.o(.conststring) for .conststring
    channel.o(.text) refers to _printf_pad.o(.text) for _printf_pre_padding
    channel.o(.text) refers to _printf_percent.o(.ARM.Collect$$_printf_percent$$00000000) for _printf_percent
    channel.o(.text) refers to _printf_d.o(.ARM.Collect$$_printf_percent$$00000009) for _printf_d
    channel.o(.text) refers to _printf_dec.o(.text) for _printf_int_dec
    channel.o(.text) refers to _printf_s.o(.ARM.Collect$$_printf_percent$$00000014) for _printf_s
    channel.o(.text) refers to _printf_str.o(.text) for _printf_str
    channel.o(.text) refers to rt_memclr_w.o(.text) for __aeabi_memclr4
    channel.o(.text) refers to lcd.o(.text) for LCDClrScreen
    channel.o(.text) refers to main.o(.bss) for SystemPara
    channel.o(.text) refers to channel.o(.constdata) for ui_aisle_admin
    channel.o(.text) refers to channelapi.o(RAM2) for stHuodao
    channel.o(.text) refers to __2snprintf.o(.text) for __2snprintf
    channel.o(.text) refers to key.o(.text) for ReadKeyValue
    channel.o(.text) refers to hefanguiapi.o(.text) for hefanOutGoodsHandle
    channel.o(.text) refers to lifttable.o(.text) for LiftTableProcess
    channel.o(.text) refers to channelapi.o(.text) for ChannelGetParamValue
    channel.o(.text) refers to traceapi.o(.text) for TraceChannel
    channel.o(.text) refers to at45db161d.o(.text) for AT45DBReadPage
    channel.o(.text) refers to common.o(.text) for CrcCheck
    channel.o(.text) refers to rt_memcpy_v6.o(.text) for __aeabi_memcpy
    channel.o(.text) refers to channeldriver.o(.data) for stChannelErrForm
    channel.o(.text) refers to channelapi.o(.bss) for stHuodaoKaoji
    channel.o(.text) refers to rt_memclr.o(.text) for __aeabi_memclr
    channel.o(.text) refers to aeabi_memset.o(.text) for __aeabi_memset
    channel.o(.text) refers to __2sprintf.o(.text) for __2sprintf
    channel.o(.text) refers to os_time.o(.text) for OSTimeDly
    channel.o(.text) refers to strcpy.o(.text) for strcpy
    channel.o(.text) refers to selectkeyapi.o(.text) for GetSelectKeyAPI
    channel.o(.text) refers to maintain.o(.text) for AdminRPTWeihu
    channel.o(.text) refers to pccomapi.o(.text) for GetAdminSIMPLEAPI
    channel.o(.constdata) refers to channel.o(.conststring) for .conststring
    lifttable.o(.text) refers to rt_memclr_w.o(.text) for __aeabi_memclr4
    lifttable.o(.text) refers to channelapi.o(.text) for ChannelGetPhysicNum
    lifttable.o(.text) refers to traceapi.o(.text) for TraceChannel
    lifttable.o(.text) refers to lifttableapi.o(.text) for LiftTableHandle
    lifttable.o(.text) refers to os_time.o(.text) for OSTimeDly
    lifttable.o(.text) refers to lifttable.o(.data) for LIFTTABLETIMER
    lifttable.o(.text) refers to lcd.o(.text) for LCDClrScreen
    lifttable.o(.text) refers to main.o(.bss) for SystemPara
    lifttable.o(.text) refers to lifttable.o(.constdata) for LogoLiftTable
    lifttable.o(.text) refers to key.o(.text) for ReadKeyValue
    lifttable.o(.text) refers to os_mbox.o(.text) for OSMboxPost
    lifttable.o(.text) refers to common.o(.data) for g_DeviceStateMail
    lifttable.o(.text) refers to channelapi.o(RAM2) for stHuodao
    lifttable.o(.constdata) refers to lifttable.o(.conststring) for .conststring
    acdc.o(.text) refers to lcd.o(.text) for LCDClrScreen
    acdc.o(.text) refers to key.o(.text) for ReadKeyValue
    acdc.o(.text) refers to os_time.o(.text) for OSTimeDly
    acdc.o(.text) refers to acdc.o(.constdata) for .constdata
    acdc.o(.text) refers to main.o(.bss) for UserPara
    acdc.o(.text) refers to channel.o(.constdata) for ui_aisle_admin
    acdc.o(.text) refers to traceapi.o(.text) for TraceCompress
    acdc.o(.text) refers to acdc.o(.data) for tempFlush
    acdc.o(.text) refers to acdcapi.o(.text) for acdc_chuchou_API
    acdc.o(.text) refers to main.o(.data) for RTCData
    acdc.o(.constdata) refers to acdc.o(.conststring) for .conststring
    acdcapi.o(.text) refers to traceapi.o(.text) for TraceCompress
    acdcapi.o(.text) refers to lifttableapi.o(.text) for liftTableLight
    acdcapi.o(.text) refers to acdcdriver.o(.text) for ACDCHandle
    acdcapi.o(.text) refers to os_mbox.o(.text) for OSMboxPost
    acdcapi.o(.text) refers to uart0.o(.text) for Trace
    acdcapi.o(.text) refers to selectkeyapi.o(.text) for SetTemperatureAPI
    acdcapi.o(.text) refers to main.o(.bss) for SystemPara
    acdcapi.o(.text) refers to common.o(.bss) for MsgAccepterPack
    acdcapi.o(.text) refers to common.o(.data) for g_ACDCMail
    acdcapi.o(.text) refers to xmt.o(.bss) for sysXMTMission
    billaccepterapi.o(.text) refers to traceapi.o(.text) for TraceBill
    billaccepterapi.o(.text) refers to os_mbox.o(.text) for OSMboxPost
    billaccepterapi.o(.text) refers to os_q.o(.text) for OSQPend
    billaccepterapi.o(.text) refers to os_time.o(.text) for OSTimeDly
    billaccepterapi.o(.text) refers to fs_billchanger.o(.text) for FS_dispense
    billaccepterapi.o(.text) refers to main.o(.bss) for SystemPara
    billaccepterapi.o(.text) refers to common.o(.bss) for MsgAccepterPack
    billaccepterapi.o(.text) refers to common.o(.data) for g_BillMoneyMail
    coinaccepterapi .o(.text) refers to traceapi.o(.text) for TraceCoin
    coinaccepterapi .o(.text) refers to pcoin.o(.text) for InitParallelPluseCoinAcceptor
    coinaccepterapi .o(.text) refers to os_mbox.o(.text) for OSMboxPost
    coinaccepterapi .o(.text) refers to os_q.o(.text) for OSQPend
    coinaccepterapi .o(.text) refers to main.o(.bss) for SystemPara
    coinaccepterapi .o(.text) refers to common.o(.bss) for MsgAccepterPack
    coinaccepterapi .o(.text) refers to common.o(.data) for g_CoinMoneyMail
    tuibiapi.o(.text) refers to key.o(.text) for ReadPayBackKeyValue
    tuibiapi.o(.text) refers to os_mbox.o(.text) for OSMboxPend
    tuibiapi.o(.text) refers to uart0.o(.text) for Trace
    tuibiapi.o(.text) refers to buzzer.o(.text) for Buzzer
    tuibiapi.o(.text) refers to pccomapi.o(.text) for ButtonRPTAPI
    tuibiapi.o(.text) refers to common.o(.data) for g_CoinMoneyBackMail
    checkdevicestate.o(.text) refers to os_mbox.o(.text) for OSMboxPost
    checkdevicestate.o(.text) refers to traceapi.o(.text) for TraceChange
    checkdevicestate.o(.text) refers to rt_memcpy_w.o(.text) for __aeabi_memcpy4
    checkdevicestate.o(.text) refers to business.o(.text) for BillCoinCtr
    checkdevicestate.o(.text) refers to common.o(.bss) for DeviceStatePack
    checkdevicestate.o(.text) refers to common.o(.data) for g_DeviceStateMail
    checkdevicestate.o(.text) refers to checkdevicestate.o(.data) for scaleError
    checkdevicestate.o(.text) refers to main.o(.bss) for SystemPara
    logapi.o(.text) refers to main.o(.data) for RTCData
    logapi.o(.text) refers to main.o(.bss) for LogParaDetail
    logapi.o(.text) refers to zhihuiapi.o(.text) for getAisleInfo
    logapi.o(.text) refers to rt_memcpy_v6.o(.text) for __aeabi_memcpy
    logapi.o(.text) refers to common.o(.text) for CrcCheck
    logapi.o(.text) refers to at45db161d.o(.text) for AT45DBWritePage
    logapi.o(.text) refers to uart0.o(.text) for Trace
    logapi.o(.text) refers to os_time.o(.text) for OSTimeDly
    logapi.o(.text) refers to rt_memclr_w.o(.text) for __aeabi_memclr4
    traceapi.o(.text) refers to c89vsprintf.o(.text) for __c89vsprintf
    traceapi.o(.text) refers to uart0.o(.text) for Uart0PutChar
    traceapi.o(.text) refers to main.o(.bss) for UserPara
    pccomapi.o(.text) refers to channelapi.o(.text) for ChannelGetSelectColumn
    pccomapi.o(.text) refers to traceapi.o(.text) for TracePC
    pccomapi.o(.text) refers to os_q.o(.text) for OSQPost
    pccomapi.o(.text) refers to os_time.o(.text) for OSTimeDly
    pccomapi.o(.text) refers to zhihuiapi.o(.text) for zh_task3_post
    pccomapi.o(.text) refers to changerapi.o(.text) for ChangerDevPayoutAPI
    pccomapi.o(.text) refers to checkdevicestate.o(.text) for ChangerIsErr
    pccomapi.o(.text) refers to common.o(.data) for g_Ubox_Index
    pccomapi.o(.text) refers to main.o(.bss) for SystemPara
    pccomapi.o(.text) refers to common.o(.bss) for MsgUboxPack
    pccomapi.o(.text) refers to common.o(RAM2) for vmc_zh_mbox
    pccomapi.o(.text) refers to business.o(.text) for GetReaderAmount
    pccomapi.o(.text) refers to logapi.o(.text) for LogCostAPI
    pccomapi.o(.text) refers to acdcapi.o(.text) for acdc_cpr_API
    pccomapi.o(.text) refers to rtc.o(.text) for RTCSetTime
    pccomapi.o(.text) refers to main.o(.data) for RTCData
    pccomapi.o(.text) refers to channel.o(.text) for ChannelAPIProcess
    pccomapi.o(.text) refers to os_mbox.o(.text) for OSMboxPost
    pccomapi.o(.text) refers to lcd.o(.text) for LCDNumberFontPrintf
    pccomapi.o(.text) refers to taskuart0device.o(.text) for mainTaskPollPC
    pccomapi.o(.text) refers to hefanguiapi.o(.data) for ChaXunRst
    pccomapi.o(.text) refers to pccomapi.o(.data) for simple
    pccomapi.o(.text) refers to pccomapi.o(.constdata) for .constdata
    pccomapi.o(.text) refers to buzzer.o(.text) for Buzzer
    lifttableapi.o(.text) refers to traceapi.o(.text) for TraceChannel
    lifttableapi.o(.text) refers to os_mbox.o(.text) for OSMboxPost
    lifttableapi.o(.text) refers to rt_memclr_w.o(.text) for __aeabi_memclr4
    lifttableapi.o(.text) refers to lifttableapi.o(.data) for isReady
    lifttableapi.o(.text) refers to common.o(.bss) for MsgAccepterPack
    lifttableapi.o(.text) refers to common.o(.data) for g_LiftTableMail
    selectkeyapi.o(.text) refers to os_mbox.o(.text) for OSMboxPost
    selectkeyapi.o(.text) refers to channelapi.o(.text) for ChannelGetSelectColumn
    selectkeyapi.o(.text) refers to main.o(.bss) for selectKey
    selectkeyapi.o(.text) refers to common.o(.bss) for MsgKEYPack
    selectkeyapi.o(.text) refers to common.o(.data) for g_KEYMail
    selectkeyapi.o(.text) refers to traceapi.o(.text) for TraceSelection
    selectkeyapi.o(.text) refers to os_time.o(.text) for OSTimeDly
    selectkeyapi.o(.text) refers to key.o(.text) for ReadKeyValue
    selectkeyapi.o(.text) refers to buzzer.o(.text) for Buzzer
    selectkeyapi.o(.text) refers to pccomapi.o(.text) for ButtonRPTAPI
    channelapi.o(.text) refers to hefanguiapi.o(.text) for hefanHuodaoInit
    channelapi.o(.text) refers to rt_memclr_w.o(.text) for __aeabi_memclr4
    channelapi.o(.text) refers to rt_memcpy_v6.o(.text) for __aeabi_memcpy
    channelapi.o(.text) refers to common.o(.text) for CrcCheck
    channelapi.o(.text) refers to at45db161d.o(.text) for AT45DBWritePage
    channelapi.o(.text) refers to channelapi.o(RAM2) for stHuodao
    channelapi.o(.text) refers to main.o(.bss) for SystemPara
    channelapi.o(.text) refers to channelapi.o(.constdata) for huodao_addr_8_10
    channelapi.o(.text) refers to os_mbox.o(.text) for OSMboxPost
    channelapi.o(.text) refers to traceapi.o(.text) for TraceChannel
    channelapi.o(.text) refers to common.o(.bss) for MsgAccepterPack
    channelapi.o(.text) refers to common.o(.data) for g_ChannelMail
    changerapi.o(.text) refers to os_mbox.o(.text) for OSMboxPost
    changerapi.o(.text) refers to traceapi.o(.text) for TraceChange
    changerapi.o(.text) refers to hopperdriver.o(.bss) for stEvbHp
    changerapi.o(.text) refers to changerapi.o(.data) for HpValueFlag
    changerapi.o(.text) refers to main.o(.bss) for SystemPara
    changerapi.o(.text) refers to common.o(.bss) for MsgAccepterPack
    changerapi.o(.text) refers to common.o(.data) for g_ChangeMoneyMail
    changerapi.o(.text) refers to os_time.o(.text) for OSTimeDly
    changerapi.o(.text) refers to billaccepterapi.o(.text) for BillDevDisableAPI
    changerapi.o(.text) refers to coinaccepterapi .o(.text) for CoinDevDisableAPI
    readerapi.o(.text) refers to os_mbox.o(.text) for OSMboxPost
    readerapi.o(.text) refers to traceapi.o(.text) for TraceReader
    readerapi.o(.text) refers to os_time.o(.text) for OSTimeDly
    readerapi.o(.text) refers to main.o(.bss) for SystemPara
    readerapi.o(.text) refers to common.o(.bss) for MsgAccepterPack
    readerapi.o(.text) refers to common.o(.data) for g_ReaderBackMoneyMail
    zhihuiapi.o(.text) refers to os_q.o(.text) for OSQPost
    zhihuiapi.o(.text) refers to os_time.o(.text) for OSTimeDly
    zhihuiapi.o(.text) refers to channelapi.o(.text) for ChannelGetParamValue
    zhihuiapi.o(.text) refers to os_mbox.o(.text) for OSMboxPend
    zhihuiapi.o(.text) refers to checkdevicestate.o(.text) for IsErrorState
    zhihuiapi.o(.text) refers to traceapi.o(.text) for TracePC
    zhihuiapi.o(.text) refers to changerapi.o(.text) for MDBchange
    zhihuiapi.o(.text) refers to business.o(.text) for StackMoneyInd
    zhihuiapi.o(.text) refers to main.o(.bss) for SystemPara
    zhihuiapi.o(.text) refers to common.o(.data) for ZhIndex
    zhihuiapi.o(.text) refers to common.o(RAM2) for vmc_zh_mbox
    zhihuiapi.o(.text) refers to zhihuiapi.o(.data) for human
    zhihuiapi.o(.text) refers to zhihuiapi.o(RAM2) for vmc_goods
    zhihuiapi.o(.text) refers to rt_memclr_w.o(.text) for __aeabi_memclr4
    zhihuiapi.o(.text) refers to at45db161d.o(.text) for AT45DBWritePage
    zhihuiapi.o(.text) refers to main.o(.data) for RTCData
    zhihuiapi.o(.text) refers to logapi.o(.text) for LogClearAPI
    zhihuiapi.o(.text) refers to channel.o(.text) for ChannelClearSuccesCount
    zhihuiapi.o(.text) refers to rt_memcpy_v6.o(.text) for __aeabi_memcpy
    zhihuiapi.o(.text) refers to channelapi.o(RAM2) for stHuodao
    zhihuiapi.o(.text) refers to common.o(.bss) for DeviceStateBusiness
    gprsapi.o(.text) refers to _printf_percent.o(.ARM.Collect$$_printf_percent$$00000000) for _printf_percent
    gprsapi.o(.text) refers to _printf_d.o(.ARM.Collect$$_printf_percent$$00000009) for _printf_d
    gprsapi.o(.text) refers to _printf_dec.o(.text) for _printf_int_dec
    gprsapi.o(.text) refers to strlen.o(.text) for strlen
    gprsapi.o(.text) refers to rt_memclr_w.o(.text) for __aeabi_memclr4
    gprsapi.o(.text) refers to gprs_uart.o(.text) for GPRS_MissionProcess
    gprsapi.o(.text) refers to uart0.o(.text) for Trace
    gprsapi.o(.text) refers to gprsapi.o(.bss) for stGprsStruct
    gprsapi.o(.text) refers to strcpy.o(.text) for strcpy
    gprsapi.o(.text) refers to strcat.o(.text) for strcat
    gprsapi.o(.text) refers to strncat.o(.text) for strncat
    gprsapi.o(.text) refers to __2sprintf.o(.text) for __2sprintf
    gprsapi.o(.text) refers to os_time.o(.text) for OSTimeDly
    gprsapi.o(.text) refers to lcd.o(.text) for LCDNumberFontPrintf
    gprsapi.o(.text) refers to strncpy.o(.text) for strncpy
    hefanguiapi.o(.text) refers to rt_memclr_w.o(.text) for __aeabi_memclr4
    hefanguiapi.o(.text) refers to rt_memcpy_v6.o(.text) for __aeabi_memcpy
    hefanguiapi.o(.text) refers to common.o(.text) for CrcCheck
    hefanguiapi.o(.text) refers to at45db161d.o(.text) for AT45DBWritePage
    hefanguiapi.o(.text) refers to os_mbox.o(.text) for OSMboxPost
    hefanguiapi.o(.text) refers to traceapi.o(.text) for TraceChannel
    hefanguiapi.o(.text) refers to uart0.o(.text) for Trace
    hefanguiapi.o(.text) refers to rt_memclr.o(.text) for __aeabi_memclr
    hefanguiapi.o(.text) refers to hefanguiapi.o(RAM2) for stHefanCabinet
    hefanguiapi.o(.text) refers to hefanguiapi.o(.constdata) for hefan_flash_page_th
    hefanguiapi.o(.text) refers to common.o(.bss) for MsgAccepterPack
    hefanguiapi.o(.text) refers to common.o(.data) for g_HeFanGuiMail
    hefanguiapi.o(.text) refers to hefanguiapi.o(.data) for ChaXunRst
    hefanguiapi.o(.text) refers to main.o(.bss) for SystemPara
    hefanguiapi.o(.text) refers to lcd.o(.text) for LCDClrScreen
    hefanguiapi.o(.text) refers to key.o(.text) for ReadKeyValue
    hefanguiapi.o(.text) refers to os_time.o(.text) for OSTimeDly
    hefanguiapi.o(.constdata) refers to hefanguiapi.o(.conststring) for .conststring
    colapi.o(.text) refers to os_time.o(.text) for OSTimeDly
    colapi.o(.text) refers to rt_memclr.o(.text) for __aeabi_memclr
    colapi.o(.text) refers to mdb_uart2.o(.text) for MdbConversation
    colapi.o(.text) refers to uart0.o(.text) for Trace
    colapi.o(.text) refers to colapi.o(RAM2) for recvbuf
    colapi.o(.text) refers to colapi.o(RAM2) for recvlen
    colapi.o(.text) refers to main.o(.bss) for Timer
    colapi.o(.text) refers to colapi.o(.data) for col_addr
    taskdevice.o(.text) refers to os_time.o(.text) for OSTimeDly
    taskdevice.o(.text) refers to mdb_uart2.o(.text) for MdbBusHardwareReset
    taskdevice.o(.text) refers to os_mbox.o(.text) for OSMboxPend
    taskdevice.o(.text) refers to traceapi.o(.text) for TraceBill
    taskdevice.o(.text) refers to billaccepter.o(.text) for BillDevInit
    taskdevice.o(.text) refers to coinaccepter .o(.text) for CoinDevInit
    taskdevice.o(.text) refers to mdbreader.o(.text) for ReaderDevInit
    taskdevice.o(.text) refers to os_sem.o(.text) for OSSemPost
    taskdevice.o(.text) refers to os_q.o(.text) for OSQPost
    taskdevice.o(.text) refers to uart0.o(.text) for Trace
    taskdevice.o(.text) refers to mdbchanger.o(.text) for ChangeGetTubes
    taskdevice.o(.text) refers to hopperdriver.o(.text) for HopperAccepter_GetState
    taskdevice.o(.text) refers to channeldriver.o(.text) for ChannelHandle
    taskdevice.o(.text) refers to common.o(.data) for g_BillMoneyMail
    taskdevice.o(.text) refers to main.o(.bss) for SystemPara
    taskdevice.o(.text) refers to common.o(.bss) for MsgAccepterPack
    taskdevice.o(.text) refers to channeldriver.o(.data) for stChannelErrForm
    taskdevice.o(.text) refers to lifttabledriver.o(.text) for LiftTableDriver
    taskdevice.o(.text) refers to acdcdriver.o(.text) for ACDCHandle
    taskdevice.o(.text) refers to colapi.o(.text) for COL_driver
    taskdevice.o(.text) refers to billaccepter.o(.data) for MdbBillErr
    taskdevice.o(.text) refers to coinaccepter .o(.bss) for MdbCoinErr
    taskdevice.o(.text) refers to channelapi.o(.text) for hd_all_check
    taskdevice.o(.text) refers to fs_billchanger.o(.text) for FS_mainTask
    taskdevice.o(.text) refers to hopperdriver.o(.bss) for stEvbHp
    taskdevice.o(.text) refers to lifttabledriver.o(.bss) for stLiftTable
    taskdevice.o(.text) refers to taskdevice.o(.constdata) for .constdata
    mdb_uart2.o(.text) refers to uart2.o(.text) for SetUart2MdbMode
    mdb_uart2.o(.text) refers to os_time.o(.text) for OSTimeDly
    mdb_uart2.o(.text) refers to os_core.o(.text) for OSIntEnter
    mdb_uart2.o(.text) refers to mdb_uart2.o(.data) for MDBCONVERSATIONWAITACKTIMEOUT
    evb_uart2.o(.text) refers to uart2.o(.text) for Uart2BuffIsNotEmpty
    evb_uart2.o(.text) refers to common.o(.text) for XorCheck
    evb_uart2.o(.text) refers to os_time.o(.text) for OSTimeDly
    evb_uart2.o(.text) refers to traceapi.o(.text) for TraceChange
    evb_uart2.o(.text) refers to evb_uart2.o(.data) for EvbAckFromDevice
    billaccepter.o(.text) refers to mdb_uart2.o(.text) for MdbConversation
    billaccepter.o(.text) refers to os_time.o(.text) for OSTimeDly
    billaccepter.o(.text) refers to traceapi.o(.text) for TraceBill
    billaccepter.o(.text) refers to rt_memclr_w.o(.text) for __aeabi_memclr4
    billaccepter.o(.text) refers to lcd.o(.text) for LCDNumberFontPrintf
    billaccepter.o(.text) refers to main.o(.bss) for SystemPara
    billaccepter.o(.text) refers to billaccepter.o(.bss) for nBillvalue
    billaccepter.o(.text) refers to billaccepter.o(.data) for MdbBillErr
    billaccepter.o(.text) refers to rt_memcpy_w.o(.text) for __aeabi_memcpy4
    billaccepter.o(.text) refers to billaccepter.o(.constdata) for .constdata
    coinaccepter .o(.text) refers to traceapi.o(.text) for TraceCoin
    coinaccepter .o(.text) refers to mdb_uart2.o(.text) for MdbConversation
    coinaccepter .o(.text) refers to rt_memclr_w.o(.text) for __aeabi_memclr4
    coinaccepter .o(.text) refers to lcd.o(.text) for LCDNumberFontPrintf
    coinaccepter .o(.text) refers to os_time.o(.text) for OSTimeDly
    coinaccepter .o(.text) refers to coinaccepter .o(.bss) for nCoinvalue
    coinaccepter .o(.text) refers to main.o(.bss) for stDevValue
    coinaccepter .o(.text) refers to coinaccepter .o(.data) for NowCoinDevState
    mdbreader.o(.text) refers to traceapi.o(.text) for TraceReader
    mdbreader.o(.text) refers to mdb_uart2.o(.text) for MdbConversation
    mdbreader.o(.text) refers to main.o(.bss) for stDevValue
    mdbreader.o(.text) refers to os_time.o(.text) for OSTimeDly
    mdbreader.o(.text) refers to lcd.o(.text) for LCDNumberFontPrintf
    lifttabledriver.o(.text) refers to uart2.o(.text) for Uart2BuffIsNotEmpty
    lifttabledriver.o(.text) refers to common.o(.text) for CrcCheck
    lifttabledriver.o(.text) refers to rt_memclr_w.o(.text) for __aeabi_memclr4
    lifttabledriver.o(.text) refers to traceapi.o(.text) for TraceChannel
    lifttabledriver.o(.text) refers to os_time.o(.text) for OSTimeDly
    lifttabledriver.o(.text) refers to lifttabledriver.o(.bss) for GetAckFromDevice
    lifttabledriver.o(.text) refers to evb_uart2.o(.data) for UART3RECVACKMSGTIMEOUT
    acdcdriver.o(.text) refers to evb_uart2.o(.text) for EvbConversation
    acdcdriver.o(.text) refers to traceapi.o(.text) for TraceCompress
    acdcdriver.o(.text) refers to acdcdriver.o(.data) for lSn
    channeldriver.o(.text) refers to evb_uart2.o(.text) for EvbConversation
    channeldriver.o(.text) refers to channeldriver.o(.data) for chSn
    hopperdriver.o(.text) refers to traceapi.o(.text) for TraceChange
    hopperdriver.o(.text) refers to evb_uart2.o(.text) for EvbConversation
    hopperdriver.o(.text) refers to uart0.o(.text) for Trace
    hopperdriver.o(.text) refers to hopperdriver.o(.data) for sn
    hopperdriver.o(.text) refers to hopperdriver.o(.bss) for stEvbHp
    hopperdriver.o(.text) refers to main.o(.bss) for Timer
    mdbchanger.o(.text) refers to rt_memclr_w.o(.text) for __aeabi_memclr4
    mdbchanger.o(.text) refers to mdb_uart2.o(.text) for MdbConversation
    mdbchanger.o(.text) refers to traceapi.o(.text) for TraceChange
    mdbchanger.o(.text) refers to os_time.o(.text) for OSTimeDly
    mdbchanger.o(.text) refers to main.o(.bss) for stDevValue
    lfmdbreader.o(.text) refers to traceapi.o(.text) for TraceReader
    lfmdbreader.o(.text) refers to mdb_uart2.o(.text) for MdbConversation
    lfmdbreader.o(.text) refers to os_time.o(.text) for OSTimeDly
    lfmdbreader.o(.text) refers to lcd.o(.text) for LCDNumberFontPrintf
    lfmdbreader.o(.text) refers to main.o(.bss) for stDevValue
    lfmdbreader.o(.text) refers to lfmdbreader.o(.constdata) for .constdata
    lfmdbreader.o(.text) refers to common.o(.data) for CardStatePack
    lfmdbreader.o(.text) refers to lfmdbreader.o(.data) for readrec
    taskuart3device.o(.text) refers to os_q.o(.text) for OSQPend
    taskuart3device.o(.text) refers to uart0.o(.text) for Trace
    taskuart3device.o(.text) refers to zhihuiapi.o(.text) for vmc_data_init
    taskuart3device.o(.text) refers to zhihuipc.o(.text) for vmc_setup_pc
    taskuart3device.o(.text) refers to gprsapi.o(.text) for mvc_gprs_init
    taskuart3device.o(.text) refers to vmc_gprs_pc.o(.text) for trade_cache_init
    taskuart3device.o(.text) refers to os_time.o(.text) for OSTimeDly
    taskuart3device.o(.text) refers to traceapi.o(.text) for TracePC
    taskuart3device.o(.text) refers to lcd.o(.text) for LCDNumberFontPrintf
    taskuart3device.o(.text) refers to ubprotocol.o(.text) for VPSerialInit
    taskuart3device.o(.text) refers to ubprotocol_simple.o(.text) for SIMPLESIMPLEVPSerialInit
    taskuart3device.o(.text) refers to checkdevicestate.o(.text) for GetWeihuStatus
    taskuart3device.o(.text) refers to main.o(.bss) for SystemPara
    taskuart3device.o(.text) refers to common.o(.data) for g_PCMail
    taskuart3device.o(.text) refers to zhihuiapi.o(RAM2) for MACData
    taskuart3device.o(.text) refers to os_mbox.o(.text) for OSMboxPost
    taskuart3device.o(.text) refers to pccomapi.o(.text) for UpdateIndex
    taskuart3device.o(.text) refers to taskuart3device.o(.constdata) for .constdata
    taskuart3device.o(.text) refers to common.o(.bss) for MsgUboxPack
    zhihuipc.o(.text) refers to rt_memclr.o(.text) for __aeabi_memclr
    zhihuipc.o(.text) refers to traceapi.o(.text) for TracePC
    zhihuipc.o(.text) refers to uart3.o(.text) for Uart3PutStr
    zhihuipc.o(.text) refers to zhihuiapi.o(.text) for crc_check
    zhihuipc.o(.text) refers to os_core.o(.text) for OSSchedLock
    zhihuipc.o(.text) refers to rtc.o(.text) for RTCSetTime
    zhihuipc.o(.text) refers to channelapi.o(.text) for ChannelSaveParam
    zhihuipc.o(.text) refers to rt_memclr_w.o(.text) for __aeabi_memclr4
    zhihuipc.o(.text) refers to zhihuiapi.o(RAM2) for zhihui_msg
    zhihuipc.o(.text) refers to main.o(.bss) for Timer
    zhihuipc.o(.text) refers to main.o(.data) for RTCData
    zhihuipc.o(.text) refers to os_time.o(.text) for OSTimeDly
    zhihuipc.o(.text) refers to zhihuipc.o(.data) for zh_pc_err
    zhihuipc.o(.text) refers to common.o(RAM2) for zh_vmc_mbox
    zhihuipc.o(.text) refers to checkdevicestate.o(.text) for GetWeihuStatus
    zhihuipc.o(.text) refers to os_q.o(.text) for OSQPend
    zhihuipc.o(.text) refers to zhihuipc.o(.constdata) for .constdata
    zhihuipc.o(.text) refers to common.o(.data) for g_PCMail
    ubprotocol.o(.text) refers to uart3.o(.text) for uart3_clr_buf
    ubprotocol.o(.text) refers to rt_memclr_w.o(.text) for __aeabi_memclr4
    ubprotocol.o(.text) refers to rt_memclr.o(.text) for __aeabi_memclr
    ubprotocol.o(.text) refers to common.o(.text) for CrcCheck
    ubprotocol.o(.text) refers to traceapi.o(.text) for TracePC
    ubprotocol.o(.text) refers to buzzer.o(.text) for Buzzer
    ubprotocol.o(.text) refers to os_time.o(.text) for OSTimeDly
    ubprotocol.o(.text) refers to ubprotocol.o(RAM2) for sysVPMission
    ubprotocol.o(.text) refers to main.o(.bss) for SystemPara
    ubprotocol.o(.text) refers to ubprotocol.o(.data) for decimalPlaces
    ubprotocol.o(.text) refers to taskuart0device.o(.text) for pcEncodAmount
    ubprotocol.o(.text) refers to acdcapi.o(.text) for acdc_status_API
    ubprotocol.o(.text) refers to business.o(.text) for GetAmountMoney
    ubprotocol.o(.text) refers to main.o(.data) for RTCData
    ubprotocol.o(.text) refers to channelapi.o(.text) for hd_huodao_id_rpt_vp
    ubprotocol.o(.text) refers to logapi.o(.bss) for stMacSn
    ubprotocol.o(.text) refers to ubprotocol.o(.constdata) for .constdata
    ubprotocol.o(.text) refers to common.o(.bss) for DeviceStateBusiness
    ubprotocol.o(.text) refers to checkdevicestate.o(.text) for GetBillCoinStatus
    ubprotocol.o(.text) refers to maintain.o(.text) for TubeMoneyEnough
    ubprotocol.o(.text) refers to xmt.o(.bss) for sysXMTMission
    ubprotocol.o(.text) refers to logapi.o(.text) for ReadLogDetailAPI
    ubprotocol.o(.text) refers to pccomapi.o(.text) for StatusRPTAPI
    ubprotocol.o(.text) refers to rt_memcpy_v6.o(.text) for __aeabi_memcpy
    ubprotocol.o(.text) refers to os_q.o(.text) for OSQPost
    ubprotocol.o(.text) refers to common.o(.data) for g_Ubox_Index
    vmc_gprs_pc.o(.text) refers to _printf_pad.o(.text) for _printf_pre_padding
    vmc_gprs_pc.o(.text) refers to _printf_percent.o(.ARM.Collect$$_printf_percent$$00000000) for _printf_percent
    vmc_gprs_pc.o(.text) refers to _printf_d.o(.ARM.Collect$$_printf_percent$$00000009) for _printf_d
    vmc_gprs_pc.o(.text) refers to _printf_c.o(.ARM.Collect$$_printf_percent$$00000013) for _printf_c
    vmc_gprs_pc.o(.text) refers to _printf_s.o(.ARM.Collect$$_printf_percent$$00000014) for _printf_s
    vmc_gprs_pc.o(.text) refers to _printf_dec.o(.text) for _printf_int_dec
    vmc_gprs_pc.o(.text) refers to _printf_str.o(.text) for _printf_str
    vmc_gprs_pc.o(.text) refers to _printf_x.o(.ARM.Collect$$_printf_percent$$0000000C) for _printf_x
    vmc_gprs_pc.o(.text) refers to _printf_hex_int_ll_ptr.o(.text) for _printf_longlong_hex
    vmc_gprs_pc.o(.text) refers to uart0.o(.text) for Trace
    vmc_gprs_pc.o(.text) refers to gprsapi.o(.text) for GPRS_SendReport
    vmc_gprs_pc.o(.text) refers to rt_memclr.o(.text) for __aeabi_memclr
    vmc_gprs_pc.o(.text) refers to os_time.o(.text) for OSTimeDly
    vmc_gprs_pc.o(.text) refers to strncmp.o(.text) for strncmp
    vmc_gprs_pc.o(.text) refers to __2sprintf.o(.text) for __2sprintf
    vmc_gprs_pc.o(.text) refers to rt_memclr_w.o(.text) for __aeabi_memclr4
    vmc_gprs_pc.o(.text) refers to zhihuiapi.o(.text) for getAisleInfo
    vmc_gprs_pc.o(.text) refers to vmc_gprs_pc.o(.bss) for trade_cache_head
    vmc_gprs_pc.o(.text) refers to zhihuiapi.o(RAM2) for zhihui_msg
    vmc_gprs_pc.o(.text) refers to main.o(.data) for RTCData
    vmc_gprs_pc.o(.text) refers to vmc_gprs_pc.o(.constdata) for .constdata
    vmc_gprs_pc.o(.text) refers to vmc_gprs_pc.o(.data) for vmc_gprs_pc_state
    vmc_gprs_pc.o(.text) refers to logapi.o(.text) for ReadLogDetailAPI
    vmc_gprs_pc.o(.text) refers to main.o(.bss) for LogPara
    vmc_gprs_pc.o(.text) refers to os_q.o(.text) for OSQPend
    vmc_gprs_pc.o(.text) refers to common.o(.data) for g_PCMail
    ubprotocol_simple.o(.text) refers to channelapi.o(.text) for hd_get_by_logic
    ubprotocol_simple.o(.text) refers to uart3.o(.text) for uart3_clr_buf
    ubprotocol_simple.o(.text) refers to rt_memclr.o(.text) for __aeabi_memclr
    ubprotocol_simple.o(.text) refers to common.o(.text) for CrcCheck
    ubprotocol_simple.o(.text) refers to buzzer.o(.text) for Buzzer
    ubprotocol_simple.o(.text) refers to os_time.o(.text) for OSTimeDly
    ubprotocol_simple.o(.text) refers to traceapi.o(.text) for TracePC
    ubprotocol_simple.o(.text) refers to ubprotocol_simple.o(.data) for hdstart
    ubprotocol_simple.o(.text) refers to ubprotocol_simple.o(RAM2) for sysVPMissionSIMPLE
    ubprotocol_simple.o(.text) refers to main.o(.bss) for SystemPara
    ubprotocol_simple.o(.text) refers to checkdevicestate.o(.text) for SIMPLEErrorStatus
    ubprotocol_simple.o(.text) refers to main.o(.data) for RTCData
    ubprotocol_simple.o(.text) refers to os_q.o(.text) for OSQPost
    ubprotocol_simple.o(.text) refers to pccomapi.o(.text) for UpdateSIMPLEIndex
    ubprotocol_simple.o(.text) refers to os_mbox.o(.text) for OSMboxPend
    ubprotocol_simple.o(.text) refers to rtc.o(.text) for RTCSetTime
    ubprotocol_simple.o(.text) refers to business.o(.text) for rstTime
    ubprotocol_simple.o(.text) refers to common.o(.data) for g_SIMPLEUbox_Index
    ubprotocol_simple.o(.text) refers to common.o(.bss) for MsgSIMPLEUboxPack
    selectkey.o(.text) refers to uart1.o(.text) for Uart1PutStr
    selectkey.o(.text) refers to traceapi.o(.text) for TraceSelection
    selectkey.o(.text) refers to os_time.o(.text) for OSTimeDly
    selectkey.o(.text) refers to rt_memclr.o(.text) for __aeabi_memclr
    selectkey.o(.text) refers to buzzer.o(.text) for Buzzer
    selectkey.o(.text) refers to selectkey.o(.bss) for evbbuf2
    selectkey.o(.text) refers to selectkey.o(.data) for SelectKeySN
    selectkey.o(.text) refers to main.o(.bss) for SystemPara
    taskuart1device.o(.text) refers to os_mbox.o(.text) for OSMboxPend
    taskuart1device.o(.text) refers to traceapi.o(.text) for TraceSelection
    taskuart1device.o(.text) refers to lcd.o(.text) for LCDNumberFontPrintf
    taskuart1device.o(.text) refers to rt_memclr.o(.text) for __aeabi_memclr
    taskuart1device.o(.text) refers to selectkey.o(.text) for SelectKey_InitProc
    taskuart1device.o(.text) refers to os_time.o(.text) for OSTimeDly
    taskuart1device.o(.text) refers to fs_billchanger.o(.text) for FS_init
    taskuart1device.o(.text) refers to xmt.o(.text) for XMTMission_GetTemperature
    taskuart1device.o(.text) refers to uart0.o(.text) for Trace
    taskuart1device.o(.text) refers to hefangui.o(.text) for HeFanGuiDriver
    taskuart1device.o(.text) refers to colapi.o(.text) for msleep
    taskuart1device.o(.text) refers to common.o(.data) for g_KEYMail
    taskuart1device.o(.text) refers to selectkey.o(.bss) for selKey
    taskuart1device.o(.text) refers to main.o(.bss) for SystemPara
    taskuart1device.o(.text) refers to xmt.o(.bss) for sysXMTMission
    taskuart1device.o(.text) refers to common.o(.bss) for MsgAccepterPack
    xmt.o(.text) refers to os_time.o(.text) for OSTimeDly
    xmt.o(.text) refers to uart1.o(.text) for Uart1PutChar
    xmt.o(.text) refers to rt_memclr.o(.text) for __aeabi_memclr
    xmt.o(.text) refers to uart0.o(.text) for Trace
    xmt.o(.text) refers to xmt.o(.bss) for sysXMTMission
    hefangui.o(.text) refers to uart1.o(.text) for Uart1BuffIsNotEmpty
    hefangui.o(.text) refers to uart0.o(.text) for Trace
    hefangui.o(.text) refers to common.o(.text) for CrcCheck
    hefangui.o(.text) refers to rt_memclr_w.o(.text) for __aeabi_memclr4
    hefangui.o(.text) refers to traceapi.o(.text) for TraceChannel
    hefangui.o(.text) refers to os_time.o(.text) for OSTimeDly
    hefangui.o(.text) refers to rt_memclr.o(.text) for __aeabi_memclr
    hefangui.o(.text) refers to hefangui.o(.bss) for HeFanGuiRecvAckBuf
    hefangui.o(.text) refers to evb_uart2.o(.data) for UART3RECVACKMSGTIMEOUT
    fs_billchanger.o(.text) refers to os_time.o(.text) for OSTimeDly
    fs_billchanger.o(.text) refers to traceapi.o(.text) for print_fs
    fs_billchanger.o(.text) refers to rt_memclr_w.o(.text) for __aeabi_memclr4
    fs_billchanger.o(.text) refers to uart1.o(.text) for SetUart1ParityMode
    fs_billchanger.o(.text) refers to os_core.o(.text) for OSSchedLock
    fs_billchanger.o(.text) refers to fs_billchanger.o(.data) for flowStatus
    fs_billchanger.o(.text) refers to fs_billchanger.o(.constdata) for fs_code_hex
    fs_billchanger.o(.text) refers to fs_billchanger.o(RAM2) for fsBill
    fs_billchanger.o(.text) refers to main.o(.bss) for SystemPara
    uart2.o(.text) refers to os_core.o(.text) for OSIntEnter
    uart2.o(.text) refers to rt_memclr.o(.text) for __aeabi_memclr
    uart2.o(.text) refers to zy_if.o(.text) for zyIsrSet
    uart2.o(.text) refers to uart2.o(.data) for Uart2_Mode
    uart2.o(.text) refers to uart2.o(.bss) for Uart2_RdBuf
    uart0.o(.text) refers to os_core.o(.text) for OSIntEnter
    uart0.o(.text) refers to rt_memclr.o(.text) for __aeabi_memclr
    uart0.o(.text) refers to zy_if.o(.text) for zyIsrSet
    uart0.o(.text) refers to c89vsprintf.o(.text) for __c89vsprintf
    uart0.o(.text) refers to uart0.o(.data) for Uart0RxdHead
    uart0.o(.text) refers to uart0.o(.bss) for Uart0RevBuff
    uart0.o(.text) refers to main.o(.bss) for UserPara
    uart1.o(.text) refers to os_core.o(.text) for OSIntEnter
    uart1.o(.text) refers to rt_memclr.o(.text) for __aeabi_memclr
    uart1.o(.text) refers to zy_if.o(.text) for zyIsrSet
    uart1.o(.text) refers to uart1.o(.data) for Uart1RxdHead
    uart1.o(.text) refers to uart1.o(RAM2) for Uart1RevBuff
    uart1.o(.text) refers to main.o(.bss) for SystemPara
    uart3.o(.text) refers to os_core.o(.text) for OSIntEnter
    uart3.o(.text) refers to rt_memclr.o(.text) for __aeabi_memclr
    uart3.o(.text) refers to zy_if.o(.text) for zyIsrSet
    uart3.o(.text) refers to uart3.o(.data) for Uart3RxdHead
    uart3.o(.text) refers to uart3.o(.bss) for Uart3RevBuff
    i2c.o(.text) refers to os_core.o(.text) for OSIntEnter
    i2c.o(.text) refers to zy_if.o(.text) for zyIsrSet
    i2c.o(.text) refers to i2c.o(.data) for I2C0_suba_en
    lcd.o(.text) refers to os_time.o(.text) for OSTimeDly
    lcd.o(.text) refers to strstr.o(.text) for strstr
    lcd.o(.text) refers to lcd.o(.constdata) for IndexASCII16_TAB
    lcd.o(.text) refers to strncpy.o(.text) for strncpy
    lcd.o(.text) refers to c89vsprintf.o(.text) for __c89vsprintf
    key.o(.text) refers to buzzer.o(.text) for Buzzer
    key.o(.text) refers to os_core.o(.text) for OSIntEnter
    key.o(.text) refers to os_q.o(.text) for OSQPost
    key.o(.text) refers to traceapi.o(.text) for TraceSelection
    key.o(.text) refers to zy_if.o(.text) for zyIsrSet
    key.o(.text) refers to os_time.o(.text) for OSTimeDly
    key.o(.text) refers to key.o(.constdata) for KEY_ROW0_TABLE
    key.o(.text) refers to key.o(.data) for KeyBoardStatus
    key.o(.text) refers to key.o(.bss) for KeyValueQ
    pcoin.o(.text) refers to os_q.o(.text) for OSQCreate
    pcoin.o(.text) refers to timer.o(.text) for InitTimer
    pcoin.o(.text) refers to traceapi.o(.text) for TraceCoin
    pcoin.o(.text) refers to pcoin.o(.data) for PARALLELPULSECOINACCEPTORDEVICESTATUS
    pcoin.o(.text) refers to pcoin.o(.bss) for PCoinChannel
    timer.o(.text) refers to os_core.o(.text) for OSIntEnter
    timer.o(.text) refers to pcoin.o(.text) for GetParallelCoinAcceptorStatus
    timer.o(.text) refers to zy_if.o(.text) for zyIsrSet
    timer.o(.text) refers to evb_uart2.o(.data) for EVBCONVERSATIONWAITACKTIMEOUT
    timer.o(.text) refers to mdb_uart2.o(.data) for MDBCONVERSATIONWAITACKTIMEOUT
    timer.o(.text) refers to main.o(.bss) for Timer
    timer.o(.text) refers to lifttable.o(.data) for LIFTTABLETIMER
    timer.o(.text) refers to xmt.o(.bss) for sysXMTMission
    timer.o(.text) refers to fs_billchanger.o(.data) for fs_timer
    timer.o(.text) refers to business.o(.data) for GOCCHECKTIMEOUT
    timer.o(.text) refers to timer.o(.data) for Tick
    gprs_uart.o(.text) refers to rt_memclr_w.o(.text) for __aeabi_memclr4
    gprs_uart.o(.text) refers to uart3.o(.text) for uart3_clr_buf
    gprs_uart.o(.text) refers to strncpy.o(.text) for strncpy
    gprs_uart.o(.text) refers to strcat.o(.text) for strcat
    gprs_uart.o(.text) refers to os_time.o(.text) for OSTimeDly
    gprs_uart.o(.text) refers to strcpy.o(.text) for strcpy
    gprs_uart.o(.text) refers to strlen.o(.text) for strlen
    gprs_uart.o(.text) refers to gprs_uart.o(.data) for GPRSWAITTIMEOUT
    os_cpu_c.o(.emb_text) refers to ostaskswhook.o(.text) for OSTaskSwHook
    os_cpu_c.o(.emb_text) refers to os_core.o(.data) for OSRunning
    os_cpu_c.o(.emb_text) refers to os_cpu_c.o(.data) for __GuiOsEnterSum
    os_cpu_c.o(.emb_text) refers to os_task.o(.text) for OSTaskDel
    os_cpu_c.o(.text) refers to os_core.o(.text) for OSIntEnter
    os_cpu_c.o(.text) refers to zy_if.o(.text) for zyIsrSet
    os_cpu_c.o(.text) refers to os_cpu_c.o(.emb_text) for __OSStartHighRdy
    os_core.o(.text) refers to os_time.o(.text) for OSTimeDly
    os_core.o(.text) refers to ostaskstathook.o(.text) for OSTaskStatHook
    os_core.o(.text) refers to os_task.o(.text) for OSTaskCreateExt
    os_core.o(.text) refers to ostaskidlehook.o(.text) for OSTaskIdleHook
    os_core.o(.text) refers to osinithookbegin.o(.text) for OSInitHookBegin
    os_core.o(.text) refers to os_flag.o(.text) for OS_FlagInit
    os_core.o(.text) refers to os_mem.o(.text) for OS_MemInit
    os_core.o(.text) refers to os_q.o(.text) for OS_QInit
    os_core.o(.text) refers to osinithookend.o(.text) for OSInitHookEnd
    os_core.o(.text) refers to os_cpu_c.o(.text) for OSIntCtxSw
    os_core.o(.text) refers to ostimetickhook.o(.text) for OSTimeTickHook
    os_core.o(.text) refers to os_core.o(.data) for OSStatRdy
    os_core.o(.text) refers to os_core.o(.bss) for OSTaskStatStk
    os_core.o(.text) refers to os_core.o(.constdata) for OSUnMapTbl
    os_core.o(.text) refers to ostcbinithook.o(.text) for OSTCBInitHook
    os_core.o(.text) refers to ostaskcreatehook.o(.text) for OSTaskCreateHook
    os_flag.o(.text) refers to os_core.o(.text) for OS_Sched
    os_flag.o(.text) refers to os_core.o(.data) for OSIntNesting
    os_flag.o(.text) refers to os_core.o(.bss) for OSFlagTbl
    os_mbox.o(.text) refers to os_core.o(.text) for OS_EventWaitListInit
    os_mbox.o(.text) refers to os_core.o(.data) for OSIntNesting
    os_mem.o(.text) refers to os_core.o(.data) for OSMemFreeList
    os_mem.o(.text) refers to os_core.o(.bss) for OSMemTbl
    os_time.o(.text) refers to os_core.o(.text) for OS_Sched
    os_time.o(.text) refers to os_core.o(.data) for OSTCBCur
    os_time.o(.text) refers to os_core.o(.bss) for OSTCBPrioTbl
    os_task.o(.text) refers to os_core.o(.text) for OS_Sched
    os_task.o(.text) refers to os_cpu_c.o(.text) for OSTaskStkInit
    os_task.o(.text) refers to rt_memclr_w.o(.text) for __aeabi_memclr4
    os_task.o(.text) refers to os_flag.o(.text) for OS_FlagUnlink
    os_task.o(.text) refers to ostaskdelhook.o(.text) for OSTaskDelHook
    os_task.o(.text) refers to os_core.o(.bss) for OSTCBPrioTbl
    os_task.o(.text) refers to os_core.o(.constdata) for OSMapTbl
    os_task.o(.text) refers to os_core.o(.data) for OSTCBCur
    os_task.o(.text) refers to rt_memcpy_w.o(.text) for __aeabi_memcpy4
    os_sem.o(.text) refers to os_core.o(.text) for OS_EventWaitListInit
    os_sem.o(.text) refers to os_core.o(.data) for OSIntNesting
    os_q.o(.text) refers to os_core.o(.text) for OS_EventWaitListInit
    os_q.o(.text) refers to os_core.o(.data) for OSIntNesting
    os_q.o(.text) refers to os_core.o(.bss) for OSQTbl
    os_mutex.o(.text) refers to os_core.o(.text) for OS_EventWaitListInit
    os_mutex.o(.text) refers to os_core.o(.data) for OSIntNesting
    os_mutex.o(.text) refers to os_core.o(.bss) for OSTCBPrioTbl
    os_mutex.o(.text) refers to os_core.o(.constdata) for OSMapTbl
    target.o(.text) refers to zy_if.o(.text) for zyReset
    target.o(.text) refers to vector_table.o(.constdata) for __GpvVectorTable
    target.o(.text) refers to os_cpu_c.o(.emb_text) for svcallHandle
    vector_table.o(.constdata) refers to __main.o(!!!main) for __main
    vector_table.o(.constdata) refers to target.o(.text) for defaultVectorHandle
    vector_table.o(.constdata) refers to os_cpu_c.o(.emb_text) for svcallHandle
    vector_table.o(.constdata) refers to os_cpu_c.o(.text) for __sysTickIsr
    vector_table.o(.constdata) refers to timer.o(.text) for TIMER0_IRQHandler
    vector_table.o(.constdata) refers to uart0.o(.text) for Uart0IsrHandler
    vector_table.o(.constdata) refers to uart1.o(.text) for Uart1IsrHandler
    vector_table.o(.constdata) refers to uart2.o(.text) for Uart2IsrHandler
    vector_table.o(.constdata) refers to uart3.o(.text) for Uart3IsrHandler
    vector_table.o(.constdata) refers to i2c.o(.text) for I2C0_IRQHandler
    vector_table.o(.constdata) refers to key.o(.text) for EINT2_IsrHandler
    zy_if.o(.text) refers to os_cpu_c.o(.emb_text) for changeToUSRMode
    zy_if.o(.text) refers to h1_alloc.o(.text) for malloc
    zy_if.o(.text) refers to h1_free.o(.text) for free
    zy_if.o(.text) refers to os_core.o(.text) for OSSchedLock
    zy_if.o(.text) refers to os_task.o(.text) for OSTaskCreate
    zy_if.o(.text) refers to os_time.o(.text) for OSTimeDly
    zy_if.o(.text) refers to os_sem.o(.text) for OSSemCreate
    zy_if.o(.text) refers to os_core.o(.bss) for OSTCBPrioTbl
    zy_if.o(.text) refers to os_core.o(.data) for OSTCBCur
    zy_if.o(.text) refers to os_q.o(.text) for OSQCreate
    zy_if.o(.text) refers to os_mem.o(.text) for OSMemCreate
    zy_if.o(.text) refers to rt_memcpy_v6.o(.text) for __aeabi_memcpy
    rt_sys_c.o(.text) refers (Special) to use_no_semi.o(.text) for __use_no_semihosting_swi
    rt_sys_c.o(.text) refers to mktime.o(.text) for mktime
    rt_sys_s.o(rt_sys) refers (Special) to use_no_semi.o(.text) for __use_no_semihosting_swi
    rt_sys_s.o(rt_sys) refers to rt_sys_s.o(Heap) for bottom_of_heap
    rt_sys_s.o(Heap) refers (Special) to use_no_semi.o(.text) for __use_no_semihosting_swi
    taskuart0device.o(.text) refers to common.o(.text) for CrcCheck
    taskuart0device.o(.text) refers to os_core.o(.text) for OSSchedLock
    taskuart0device.o(.text) refers to rt_memclr_w.o(.text) for __aeabi_memclr4
    taskuart0device.o(.text) refers to os_time.o(.text) for OSTimeDly
    taskuart0device.o(.text) refers to main.o(.bss) for SystemPara
    taskuart0device.o(.text) refers to taskuart0device.o(.data) for pcm_uartNoEmpty
    taskuart0device.o(.text) refers to os_mbox.o(.text) for OSMboxPost
    taskuart0device.o(.text) refers to channelapi.o(.text) for SetColumnParamByPhysic
    taskuart0device.o(.text) refers to hefanguiapi.o(.text) for get_hefan_Index
    taskuart0device.o(.text) refers to taskuart0device.o(RAM2) for pc_vmc_mail
    taskuart0device.o(.text) refers to uart0.o(.text) for Uart0BuffIsNotEmpty
    taskuart0device.o(.text) refers to uart3.o(.text) for Uart3BuffIsNotEmpty
    taskuart0device.o(.text) refers to os_q.o(.text) for OSQPend
    taskuart0device.o(.text) refers to logapi.o(.text) for ReadDetailTraceAPI
    taskuart0device.o(.text) refers to zhihuiapi.o(.text) for pc_trade_info_clear
    taskuart0device.o(.text) refers to rt_memcpy_w.o(.text) for __aeabi_memcpy4
    taskuart0device.o(.text) refers to rt_memcpy_v6.o(.text) for __aeabi_memcpy
    taskuart0device.o(.text) refers to rtc.o(.text) for RTCSetTime
    taskuart0device.o(.text) refers to checkdevicestate.o(.text) for ErrorStatus
    taskuart0device.o(.text) refers to logapi.o(.bss) for stMacSn
    taskuart0device.o(.text) refers to main.o(.data) for RTCData
    taskuart0device.o(.text) refers to common.o(.bss) for DeviceStateBusiness
    taskuart0device.o(.text) refers to lifttabledriver.o(.bss) for stLiftTable
    taskuart0device.o(.text) refers to os_task.o(.text) for OSTaskStkChk
    taskuart0device.o(.text) refers to taskuart0device.o(.bss) for PCMSizeQ
    taskuart0device.o(.text) refers to channel.o(.text) for ChannelAPIProcess
    malloc.o(.text) refers (Special) to hguard.o(.text) for __heap$guard
    malloc.o(.text) refers (Special) to init_alloc.o(.text) for _init_alloc
    malloc.o(.text) refers to rt_heap_descriptor_intlibspace.o(.text) for __rt_heap_descriptor
    malloc.o(.text) refers to heapstubs.o(.text) for __Heap_Alloc
    free.o(.text) refers (Special) to hguard.o(.text) for __heap$guard
    free.o(.text) refers to rt_heap_descriptor_intlibspace.o(.text) for __rt_heap_descriptor
    free.o(.text) refers to heapstubs.o(.text) for __Heap_Free
    h1_alloc.o(.text) refers (Special) to h1_init.o(.text) for __Heap_Initialize
    h1_alloc.o(.text) refers to rt_heap_descriptor_intlibspace.o(.text) for __rt_heap_descriptor
    h1_alloc.o(.text) refers to init_alloc.o(.text) for __Heap_Full
    h1_free.o(.text) refers to rt_heap_descriptor_intlibspace.o(.text) for __rt_heap_descriptor
    h1_alloc_mt.o(.text) refers (Special) to h1_init.o(.text) for __Heap_Initialize
    h1_alloc_mt.o(.text) refers to init_alloc.o(.text) for __Heap_Full
    h1_alloc_mt.o(.text) refers to rt_heap_descriptor_intlibspace.o(.text) for __rt_heap_descriptor
    h1_free_mt.o(.text) refers to rt_heap_descriptor_intlibspace.o(.text) for __rt_heap_descriptor
    heap2.o(i._FDIterate) refers to heap2.o(.constdata) for .constdata
    heap2.o(i.___Heap_ProvideMemory$realtime) refers to fdtree.o(i._FDTree_Delete) for _FDTree_Delete
    heap2.o(i.___Heap_ProvideMemory$realtime) refers to fdtree.o(i._FDTree_Insert) for _FDTree_Insert
    heap2.o(i.___Heap_Stats$realtime) refers to heap2.o(i._Heap2_StatsIterate) for _Heap2_StatsIterate
    heap2.o(i.___Heap_Valid$realtime) refers to heap2.o(i._FDIterate) for _FDIterate
    heap2.o(i.___Heap_Valid$realtime) refers to heap2.o(.constdata) for .constdata
    heap2.o(i._free$realtime) refers to rt_heap_descriptor_intlibspace.o(.text) for __rt_heap_descriptor
    heap2.o(i._free$realtime) refers to fdtree.o(i._FDTree_Delete) for _FDTree_Delete
    heap2.o(i._free$realtime) refers to fdtree.o(i._FDTree_Insert) for _FDTree_Insert
    heap2.o(i._malloc$realtime) refers to rt_heap_descriptor_intlibspace.o(.text) for __rt_heap_descriptor
    heap2.o(i._malloc$realtime) refers to fdtree.o(i._FDTree_FindFirst) for _FDTree_FindFirst
    heap2.o(i._malloc$realtime) refers to init_alloc.o(.text) for __Heap_Full
    heap2.o(i._malloc$realtime) refers to fdtree.o(i._FDTree_RemoveNode) for _FDTree_RemoveNode
    heap2.o(i._malloc$realtime) refers to fdtree.o(i._FDTree_Insert) for _FDTree_Insert
    heap2.o(i._posix_memalign$realtime) refers to rt_heap_descriptor_intlibspace.o(.text) for __rt_heap_descriptor
    heap2.o(i._posix_memalign$realtime) refers to fdtree.o(i._FDTree_FindFirst) for _FDTree_FindFirst
    heap2.o(i._posix_memalign$realtime) refers to init_alloc.o(.text) for __Heap_Full
    heap2.o(i._posix_memalign$realtime) refers to fdtree.o(i._FDTree_RemoveNode) for _FDTree_RemoveNode
    heap2.o(i._posix_memalign$realtime) refers to fdtree.o(i._FDTree_Insert) for _FDTree_Insert
    heap2.o(i._realloc$realtime) refers to rt_heap_descriptor_intlibspace.o(.text) for __rt_heap_descriptor
    heap2.o(i._realloc$realtime) refers to h1_free.o(.text) for free
    heap2.o(i._realloc$realtime) refers to h1_alloc.o(.text) for malloc
    heap2.o(i._realloc$realtime) refers to fdtree.o(i._FDTree_Delete) for _FDTree_Delete
    heap2.o(i._realloc$realtime) refers to fdtree.o(i._FDTree_Insert) for _FDTree_Insert
    heap2.o(i._realloc$realtime) refers to rt_memcpy_w.o(.text) for __aeabi_memcpy4
    heap2mt.o(i._FDIterate) refers to heap2mt.o(.constdata) for .constdata
    heap2mt.o(i.___Heap_Initialize$realtime$concurrent) refers to mutex_dummy.o(.text) for _mutex_initialize
    heap2mt.o(i.___Heap_ProvideMemory$realtime$concurrent) refers to fdtree.o(i._FDTree_Delete) for _FDTree_Delete
    heap2mt.o(i.___Heap_ProvideMemory$realtime$concurrent) refers to fdtree.o(i._FDTree_Insert) for _FDTree_Insert
    heap2mt.o(i.___Heap_Stats$realtime$concurrent) refers to heap2mt.o(i._Heap2_StatsIterate) for _Heap2_StatsIterate
    heap2mt.o(i.___Heap_Valid$realtime$concurrent) refers to heap2mt.o(i._FDIterate) for _FDIterate
    heap2mt.o(i.___Heap_Valid$realtime$concurrent) refers to heap2mt.o(.constdata) for .constdata
    heap2mt.o(i._free$realtime$concurrent) refers to rt_heap_descriptor_intlibspace.o(.text) for __rt_heap_descriptor
    heap2mt.o(i._free$realtime$concurrent) refers to fdtree.o(i._FDTree_Delete) for _FDTree_Delete
    heap2mt.o(i._free$realtime$concurrent) refers to fdtree.o(i._FDTree_Insert) for _FDTree_Insert
    heap2mt.o(i._malloc$realtime$concurrent) refers to rt_heap_descriptor_intlibspace.o(.text) for __rt_heap_descriptor
    heap2mt.o(i._malloc$realtime$concurrent) refers to fdtree.o(i._FDTree_FindFirst) for _FDTree_FindFirst
    heap2mt.o(i._malloc$realtime$concurrent) refers to init_alloc.o(.text) for __Heap_Full
    heap2mt.o(i._malloc$realtime$concurrent) refers to fdtree.o(i._FDTree_RemoveNode) for _FDTree_RemoveNode
    heap2mt.o(i._malloc$realtime$concurrent) refers to fdtree.o(i._FDTree_Insert) for _FDTree_Insert
    heap2mt.o(i._posix_memalign$realtime$concurrent) refers to rt_heap_descriptor_intlibspace.o(.text) for __rt_heap_descriptor
    heap2mt.o(i._posix_memalign$realtime$concurrent) refers to fdtree.o(i._FDTree_FindFirst) for _FDTree_FindFirst
    heap2mt.o(i._posix_memalign$realtime$concurrent) refers to init_alloc.o(.text) for __Heap_Full
    heap2mt.o(i._posix_memalign$realtime$concurrent) refers to fdtree.o(i._FDTree_RemoveNode) for _FDTree_RemoveNode
    heap2mt.o(i._posix_memalign$realtime$concurrent) refers to fdtree.o(i._FDTree_Insert) for _FDTree_Insert
    heap2mt.o(i._realloc$realtime$concurrent) refers to rt_heap_descriptor_intlibspace.o(.text) for __rt_heap_descriptor
    heap2mt.o(i._realloc$realtime$concurrent) refers to h1_free.o(.text) for free
    heap2mt.o(i._realloc$realtime$concurrent) refers to h1_alloc.o(.text) for malloc
    heap2mt.o(i._realloc$realtime$concurrent) refers to fdtree.o(i._FDTree_Delete) for _FDTree_Delete
    heap2mt.o(i._realloc$realtime$concurrent) refers to fdtree.o(i._FDTree_Insert) for _FDTree_Insert
    heap2mt.o(i._realloc$realtime$concurrent) refers to rt_memcpy_w.o(.text) for __aeabi_memcpy4
    c89vsprintf.o(.text) refers (Special) to _printf_a.o(.ARM.Collect$$_printf_percent$$00000006) for _printf_a
    c89vsprintf.o(.text) refers (Special) to _printf_c.o(.ARM.Collect$$_printf_percent$$00000013) for _printf_c
    c89vsprintf.o(.text) refers (Special) to _printf_charcount.o(.text) for _printf_charcount
    c89vsprintf.o(.text) refers (Special) to _printf_d.o(.ARM.Collect$$_printf_percent$$00000009) for _printf_d
    c89vsprintf.o(.text) refers (Special) to _printf_e.o(.ARM.Collect$$_printf_percent$$00000004) for _printf_e
    c89vsprintf.o(.text) refers (Special) to _printf_f.o(.ARM.Collect$$_printf_percent$$00000003) for _printf_f
    c89vsprintf.o(.text) refers (Special) to printf1.o(x$fpl$printf1) for _printf_fp_dec
    c89vsprintf.o(.text) refers (Special) to _printf_g.o(.ARM.Collect$$_printf_percent$$00000005) for _printf_g
    c89vsprintf.o(.text) refers (Special) to _printf_i.o(.ARM.Collect$$_printf_percent$$00000008) for _printf_i
    c89vsprintf.o(.text) refers (Special) to _printf_dec.o(.text) for _printf_int_dec
    c89vsprintf.o(.text) refers (Special) to _printf_l.o(.ARM.Collect$$_printf_percent$$00000012) for _printf_l
    c89vsprintf.o(.text) refers (Special) to _printf_lc.o(.ARM.Collect$$_printf_percent$$00000015) for _printf_lc
    c89vsprintf.o(.text) refers (Special) to _printf_ll.o(.ARM.Collect$$_printf_percent$$00000007) for _printf_ll
    c89vsprintf.o(.text) refers (Special) to _printf_lld.o(.ARM.Collect$$_printf_percent$$0000000E) for _printf_lld
    c89vsprintf.o(.text) refers (Special) to _printf_lli.o(.ARM.Collect$$_printf_percent$$0000000D) for _printf_lli
    c89vsprintf.o(.text) refers (Special) to _printf_llo.o(.ARM.Collect$$_printf_percent$$00000010) for _printf_llo
    c89vsprintf.o(.text) refers (Special) to _printf_llu.o(.ARM.Collect$$_printf_percent$$0000000F) for _printf_llu
    c89vsprintf.o(.text) refers (Special) to _printf_llx.o(.ARM.Collect$$_printf_percent$$00000011) for _printf_llx
    c89vsprintf.o(.text) refers (Special) to _printf_longlong_dec.o(.text) for _printf_longlong_dec
    c89vsprintf.o(.text) refers (Special) to _printf_hex_int_ll_ptr.o(.text) for _printf_longlong_hex
    c89vsprintf.o(.text) refers (Special) to _printf_oct_int_ll.o(.text) for _printf_longlong_oct
    c89vsprintf.o(.text) refers (Special) to _printf_ls.o(.ARM.Collect$$_printf_percent$$00000016) for _printf_ls
    c89vsprintf.o(.text) refers (Special) to _printf_n.o(.ARM.Collect$$_printf_percent$$00000001) for _printf_n
    c89vsprintf.o(.text) refers (Special) to _printf_o.o(.ARM.Collect$$_printf_percent$$0000000B) for _printf_o
    c89vsprintf.o(.text) refers (Special) to _printf_p.o(.ARM.Collect$$_printf_percent$$00000002) for _printf_p
    c89vsprintf.o(.text) refers (Special) to _printf_percent.o(.ARM.Collect$$_printf_percent$$00000000) for _printf_percent
    c89vsprintf.o(.text) refers (Special) to _printf_pad.o(.text) for _printf_post_padding
    c89vsprintf.o(.text) refers (Special) to _printf_s.o(.ARM.Collect$$_printf_percent$$00000014) for _printf_s
    c89vsprintf.o(.text) refers (Special) to _printf_str.o(.text) for _printf_str
    c89vsprintf.o(.text) refers (Special) to _printf_truncate.o(.text) for _printf_truncate_signed
    c89vsprintf.o(.text) refers (Special) to _printf_u.o(.ARM.Collect$$_printf_percent$$0000000A) for _printf_u
    c89vsprintf.o(.text) refers (Special) to _printf_wctomb.o(.text) for _printf_wctomb
    c89vsprintf.o(.text) refers (Special) to _printf_x.o(.ARM.Collect$$_printf_percent$$0000000C) for _printf_x
    c89vsprintf.o(.text) refers to _printf_char_common.o(.text) for _printf_char_common
    c89vsprintf.o(.text) refers to _sputc.o(.text) for _sputc
    __2sprintf.o(.text) refers to _printf_char_common.o(.text) for _printf_char_common
    __2sprintf.o(.text) refers to _sputc.o(.text) for _sputc
    __2snprintf.o(.text) refers to _printf_char_common.o(.text) for _printf_char_common
    __2snprintf.o(.text) refers to _sputc.o(.text) for _sputc
    __2snprintf.o(.text) refers to _snputc.o(.text) for _snputc
    noretval__2sprintf.o(.text) refers to _printf_char_common.o(.text) for _printf_char_common
    noretval__2sprintf.o(.text) refers to _sputc.o(.text) for _sputc
    noretval__2snprintf.o(.text) refers to _printf_char_common.o(.text) for _printf_char_common
    noretval__2snprintf.o(.text) refers to _sputc.o(.text) for _sputc
    noretval__2snprintf.o(.text) refers to _snputc.o(.text) for _snputc
    __printf.o(.text) refers to _printf_percent.o(.ARM.Collect$$_printf_percent$$00000000) for _printf_percent
    _printf_str.o(.text) refers (Special) to _printf_char.o(.text) for _printf_cs_common
    _printf_str.o(.text) refers (Weak) to _printf_pad.o(.text) for _printf_pre_padding
    _printf_str.o(.text) refers (Weak) to _printf_pad.o(.text) for _printf_post_padding
    _printf_dec.o(.text) refers (Weak) to _printf_truncate.o(.text) for _printf_truncate_signed
    _printf_dec.o(.text) refers (Weak) to _printf_truncate.o(.text) for _printf_truncate_unsigned
    _printf_dec.o(.text) refers to rtudiv10.o(.text) for __rt_udiv10
    _printf_dec.o(.text) refers to _printf_intcommon.o(.text) for _printf_int_common
    _printf_hex_ll.o(.text) refers to _printf_intcommon.o(.text) for _printf_int_common
    _printf_hex_ll.o(.text) refers to _printf_hex_ll.o(.constdata) for .constdata
    _printf_hex_int.o(.text) refers (Weak) to _printf_truncate.o(.text) for _printf_truncate_unsigned
    _printf_hex_int.o(.text) refers to _printf_intcommon.o(.text) for _printf_int_common
    _printf_hex_int.o(.text) refers to _printf_hex_int.o(.constdata) for .constdata
    _printf_hex_int_ll.o(.text) refers to _printf_intcommon.o(.text) for _printf_int_common
    _printf_hex_int_ll.o(.text) refers (Weak) to _printf_truncate.o(.text) for _printf_truncate_unsigned
    _printf_hex_int_ll.o(.text) refers to _printf_hex_int_ll.o(.constdata) for .constdata
    _printf_hex_ptr.o(.text) refers to _printf_intcommon.o(.text) for _printf_int_common
    _printf_hex_ptr.o(.text) refers to _printf_hex_ptr.o(.constdata) for .constdata
    _printf_hex_int_ptr.o(.text) refers to _printf_intcommon.o(.text) for _printf_int_common
    _printf_hex_int_ptr.o(.text) refers (Weak) to _printf_truncate.o(.text) for _printf_truncate_unsigned
    _printf_hex_int_ptr.o(.text) refers to _printf_hex_int_ptr.o(.constdata) for .constdata
    _printf_hex_ll_ptr.o(.text) refers to _printf_intcommon.o(.text) for _printf_int_common
    _printf_hex_ll_ptr.o(.text) refers to _printf_hex_ll_ptr.o(.constdata) for .constdata
    _printf_hex_int_ll_ptr.o(.text) refers to _printf_intcommon.o(.text) for _printf_int_common
    _printf_hex_int_ll_ptr.o(.text) refers (Weak) to _printf_truncate.o(.text) for _printf_truncate_unsigned
    _printf_hex_int_ll_ptr.o(.text) refers to _printf_hex_int_ll_ptr.o(.constdata) for .constdata
    __printf_flags.o(.text) refers to _printf_percent.o(.ARM.Collect$$_printf_percent$$00000000) for _printf_percent
    __printf_flags.o(.text) refers to __printf_flags.o(.constdata) for .constdata
    __printf_ss.o(.text) refers to _printf_percent.o(.ARM.Collect$$_printf_percent$$00000000) for _printf_percent
    __printf_flags_ss.o(.text) refers to _printf_percent.o(.ARM.Collect$$_printf_percent$$00000000) for _printf_percent
    __printf_flags_ss.o(.text) refers to __printf_flags_ss.o(.constdata) for .constdata
    __printf_wp.o(.text) refers to _printf_percent.o(.ARM.Collect$$_printf_percent$$00000000) for _printf_percent
    __printf_flags_wp.o(.text) refers to _printf_percent.o(.ARM.Collect$$_printf_percent$$00000000) for _printf_percent
    __printf_flags_wp.o(.text) refers to __printf_flags_wp.o(.constdata) for .constdata
    __printf_ss_wp.o(.text) refers to _printf_percent.o(.ARM.Collect$$_printf_percent$$00000000) for _printf_percent
    __printf_flags_ss_wp.o(.text) refers to _printf_percent.o(.ARM.Collect$$_printf_percent$$00000000) for _printf_percent
    __printf_flags_ss_wp.o(.text) refers to __printf_flags_ss_wp.o(.constdata) for .constdata
    _printf_c.o(.ARM.Collect$$_printf_percent$$00000013) refers (Weak) to _printf_char.o(.text) for _printf_char
    _printf_s.o(.ARM.Collect$$_printf_percent$$00000014) refers (Weak) to _printf_char.o(.text) for _printf_string
    _printf_x.o(.ARM.Collect$$_printf_percent$$0000000C) refers (Weak) to _printf_hex_int_ll_ptr.o(.text) for _printf_int_hex
    _printf_d.o(.ARM.Collect$$_printf_percent$$00000009) refers (Weak) to _printf_dec.o(.text) for _printf_int_dec
    _printf_percent.o(.ARM.Collect$$_printf_percent$$00000000) refers (Special) to _printf_percent_end.o(.ARM.Collect$$_printf_percent$$00000017) for _printf_percent_end
    rt_memcpy_v6.o(.text) refers to rt_memcpy_w.o(.text) for __aeabi_memcpy4
    aeabi_memset.o(.text) refers to rt_memclr.o(.text) for _memset
    rt_memclr.o(.text) refers to rt_memclr_w.o(.text) for _memset_w
    strncpy.o(.text) refers to rt_memclr.o(.text) for __aeabi_memclr
    mktime.o(.text) refers to _monlen.o(.constdata) for _monlen
    __main.o(!!!main) refers to rtentry.o(.ARM.Collect$$rtentry$$00000000) for __rt_entry
    rtentry.o(.ARM.Collect$$rtentry$$00000000) refers (Special) to rtentry2.o(.ARM.Collect$$rtentry$$0000000A) for __rt_entry_li
    rtentry.o(.ARM.Collect$$rtentry$$00000000) refers (Special) to rtentry2.o(.ARM.Collect$$rtentry$$0000000D) for __rt_entry_main
    rtentry.o(.ARM.Collect$$rtentry$$00000000) refers (Special) to rtentry2.o(.ARM.Collect$$rtentry$$0000000C) for __rt_entry_postli_1
    rtentry.o(.ARM.Collect$$rtentry$$00000000) refers (Special) to rtentry2.o(.ARM.Collect$$rtentry$$00000009) for __rt_entry_postsh_1
    rtentry.o(.ARM.Collect$$rtentry$$00000000) refers (Special) to rtentry2.o(.ARM.Collect$$rtentry$$00000002) for __rt_entry_presh_1
    rtentry.o(.ARM.Collect$$rtentry$$00000000) refers (Special) to rtentry4.o(.ARM.Collect$$rtentry$$00000004) for __rt_entry_sh
    rtentry.o(.ARM.exidx) refers (Special) to rtentry2.o(.ARM.Collect$$rtentry$$0000000A) for __rt_entry_li
    rtentry.o(.ARM.exidx) refers (Special) to rtentry2.o(.ARM.Collect$$rtentry$$0000000D) for __rt_entry_main
    rtentry.o(.ARM.exidx) refers (Special) to rtentry2.o(.ARM.Collect$$rtentry$$0000000C) for __rt_entry_postli_1
    rtentry.o(.ARM.exidx) refers (Special) to rtentry2.o(.ARM.Collect$$rtentry$$00000009) for __rt_entry_postsh_1
    rtentry.o(.ARM.exidx) refers (Special) to rtentry2.o(.ARM.Collect$$rtentry$$00000002) for __rt_entry_presh_1
    rtentry.o(.ARM.exidx) refers (Special) to rtentry4.o(.ARM.Collect$$rtentry$$00000004) for __rt_entry_sh
    rtentry.o(.ARM.exidx) refers to rtentry.o(.ARM.Collect$$rtentry$$00000000) for .ARM.Collect$$rtentry$$00000000
    rt_heap_descriptor.o(.text) refers to rt_heap_descriptor.o(.bss) for __rt_heap_descriptor_data
    rt_heap_descriptor_intlibspace.o(.text) refers to libspace.o(.bss) for __libspace_start
    init_alloc.o(.text) refers (Special) to hguard.o(.text) for __heap$guard
    init_alloc.o(.text) refers (Special) to libinit2.o(.ARM.Collect$$libinit$$00000001) for __rt_lib_init_heap_2
    init_alloc.o(.text) refers (Special) to maybetermalloc1.o(.emb_text) for _maybe_terminate_alloc
    init_alloc.o(.text) refers to heapauxa.o(.text) for __rt_heap_expand
    init_alloc.o(.text) refers to h1_extend.o(.text) for __Heap_ProvideMemory
    init_alloc.o(.text) refers to defsig_rtmem_outer.o(.text) for __rt_SIGRTMEM
    init_alloc.o(.text) refers to rt_heap_descriptor_intlibspace.o(.text) for __rt_heap_descriptor
    init_alloc.o(.text) refers to h1_init.o(.text) for __Heap_Initialize
    h1_init_mt.o(.text) refers to mutex_dummy.o(.text) for _mutex_initialize
    _printf_intcommon.o(.text) refers (Weak) to _printf_pad.o(.text) for _printf_pre_padding
    _printf_intcommon.o(.text) refers (Weak) to _printf_pad.o(.text) for _printf_pre_padding
    _printf_intcommon.o(.text) refers (Weak) to _printf_pad.o(.text) for _printf_post_padding
    _printf_char_common.o(.text) refers to __printf_flags_ss_wp.o(.text) for __printf
    _printf_char.o(.text) refers (Weak) to _printf_str.o(.text) for _printf_str
    _printf_wctomb.o(.text) refers (Special) to _printf_wchar.o(.text) for _printf_lcs_common
    _printf_wctomb.o(.text) refers to _wcrtomb.o(.text) for _wcrtomb
    _printf_wctomb.o(.text) refers (Weak) to _printf_pad.o(.text) for _printf_pre_padding
    _printf_wctomb.o(.text) refers (Weak) to _printf_pad.o(.text) for _printf_post_padding
    _printf_wctomb.o(.text) refers to _printf_wctomb.o(.constdata) for .constdata
    _printf_wctomb.o(.constdata) refers (Special) to _printf_wchar.o(.text) for _printf_lcs_common
    _printf_longlong_dec.o(.text) refers to lludiv10.o(.text) for _ll_udiv10
    _printf_longlong_dec.o(.text) refers to _printf_intcommon.o(.text) for _printf_int_common
    _printf_oct_ll.o(.text) refers to _printf_intcommon.o(.text) for _printf_int_common
    _printf_oct_int.o(.text) refers (Weak) to _printf_truncate.o(.text) for _printf_truncate_unsigned
    _printf_oct_int.o(.text) refers to _printf_intcommon.o(.text) for _printf_int_common
    _printf_oct_int_ll.o(.text) refers to _printf_intcommon.o(.text) for _printf_int_common
    _printf_oct_int_ll.o(.text) refers (Weak) to _printf_truncate.o(.text) for _printf_truncate_unsigned
    _printf_n.o(.ARM.Collect$$_printf_percent$$00000001) refers (Weak) to _printf_charcount.o(.text) for _printf_charcount
    _printf_p.o(.ARM.Collect$$_printf_percent$$00000002) refers (Weak) to _printf_hex_int_ll_ptr.o(.text) for _printf_hex_ptr
    _printf_o.o(.ARM.Collect$$_printf_percent$$0000000B) refers (Weak) to _printf_oct_int_ll.o(.text) for _printf_int_oct
    _printf_i.o(.ARM.Collect$$_printf_percent$$00000008) refers (Weak) to _printf_dec.o(.text) for _printf_int_dec
    _printf_u.o(.ARM.Collect$$_printf_percent$$0000000A) refers (Weak) to _printf_dec.o(.text) for _printf_int_dec
    _printf_f.o(.ARM.Collect$$_printf_percent$$00000003) refers (Weak) to printf1.o(x$fpl$printf1) for _printf_fp_dec
    _printf_e.o(.ARM.Collect$$_printf_percent$$00000004) refers (Weak) to printf1.o(x$fpl$printf1) for _printf_fp_dec
    _printf_g.o(.ARM.Collect$$_printf_percent$$00000005) refers (Weak) to printf1.o(x$fpl$printf1) for _printf_fp_dec
    _printf_lli.o(.ARM.Collect$$_printf_percent$$0000000D) refers (Special) to _printf_ll.o(.ARM.Collect$$_printf_percent$$00000007) for _printf_ll
    _printf_lli.o(.ARM.Collect$$_printf_percent$$0000000D) refers (Weak) to _printf_longlong_dec.o(.text) for _printf_longlong_dec
    _printf_lld.o(.ARM.Collect$$_printf_percent$$0000000E) refers (Special) to _printf_ll.o(.ARM.Collect$$_printf_percent$$00000007) for _printf_ll
    _printf_lld.o(.ARM.Collect$$_printf_percent$$0000000E) refers (Weak) to _printf_longlong_dec.o(.text) for _printf_longlong_dec
    _printf_llu.o(.ARM.Collect$$_printf_percent$$0000000F) refers (Special) to _printf_ll.o(.ARM.Collect$$_printf_percent$$00000007) for _printf_ll
    _printf_llu.o(.ARM.Collect$$_printf_percent$$0000000F) refers (Weak) to _printf_longlong_dec.o(.text) for _printf_longlong_dec
    _printf_lc.o(.ARM.Collect$$_printf_percent$$00000015) refers (Special) to _printf_l.o(.ARM.Collect$$_printf_percent$$00000012) for _printf_l
    _printf_lc.o(.ARM.Collect$$_printf_percent$$00000015) refers (Weak) to _printf_wchar.o(.text) for _printf_wchar
    _printf_ls.o(.ARM.Collect$$_printf_percent$$00000016) refers (Special) to _printf_l.o(.ARM.Collect$$_printf_percent$$00000012) for _printf_l
    _printf_ls.o(.ARM.Collect$$_printf_percent$$00000016) refers (Weak) to _printf_wchar.o(.text) for _printf_wstring
    _printf_llo.o(.ARM.Collect$$_printf_percent$$00000010) refers (Special) to _printf_ll.o(.ARM.Collect$$_printf_percent$$00000007) for _printf_ll
    _printf_llo.o(.ARM.Collect$$_printf_percent$$00000010) refers (Weak) to _printf_oct_int_ll.o(.text) for _printf_ll_oct
    _printf_llx.o(.ARM.Collect$$_printf_percent$$00000011) refers (Special) to _printf_ll.o(.ARM.Collect$$_printf_percent$$00000007) for _printf_ll
    _printf_llx.o(.ARM.Collect$$_printf_percent$$00000011) refers (Weak) to _printf_hex_int_ll_ptr.o(.text) for _printf_ll_hex
    _get_argv.o(.text) refers (Special) to hrguard.o(.text) for __heap_region$guard
    _get_argv.o(.text) refers to h1_alloc.o(.text) for malloc
    _get_argv.o(.text) refers to defsig_rtmem_outer.o(.text) for __rt_SIGRTMEM
    _get_argv.o(.text) refers to rt_sys_c.o(.text) for _sys_command_string
    libinit2.o(.ARM.Collect$$libinit$$00000001) refers (Weak) to init_alloc.o(.text) for _init_alloc
    libinit2.o(.ARM.Collect$$libinit$$0000000B) refers (Weak) to rt_locale_intlibspace.o(.text) for __rt_locale
    libinit2.o(.ARM.Collect$$libinit$$0000000C) refers to libinit2.o(.ARM.Collect$$libinit$$0000000B) for .ARM.Collect$$libinit$$0000000B
    libinit2.o(.ARM.Collect$$libinit$$0000000E) refers to libinit2.o(.ARM.Collect$$libinit$$0000000B) for .ARM.Collect$$libinit$$0000000B
    libinit2.o(.ARM.Collect$$libinit$$0000000E) refers (Weak) to lc_ctype_c.o(locale$$code) for _get_lc_ctype
    libinit2.o(.ARM.Collect$$libinit$$00000010) refers to libinit2.o(.ARM.Collect$$libinit$$0000000B) for .ARM.Collect$$libinit$$0000000B
    libinit2.o(.ARM.Collect$$libinit$$00000012) refers to libinit2.o(.ARM.Collect$$libinit$$0000000B) for .ARM.Collect$$libinit$$0000000B
    libinit2.o(.ARM.Collect$$libinit$$00000012) refers (Weak) to lc_numeric_c.o(locale$$code) for _get_lc_numeric
    libinit2.o(.ARM.Collect$$libinit$$00000014) refers to libinit2.o(.ARM.Collect$$libinit$$0000000B) for .ARM.Collect$$libinit$$0000000B
    libinit2.o(.ARM.Collect$$libinit$$00000022) refers to argv_veneer.o(.emb_text) for __ARM_argv_veneer
    libinit2.o(.ARM.Collect$$libinit$$00000023) refers to argv_veneer.o(.emb_text) for __ARM_argv_veneer
    printf1.o(x$fpl$printf1) refers to _printf_fp_dec.o(.text) for _printf_fp_dec_real
    libspace.o(.text) refers to libspace.o(.bss) for __libspace_start
    rtentry2.o(.ARM.Collect$$rtentry$$00000008) refers to boardinit2.o(.text) for _platform_post_stackheap_init
    rtentry2.o(.ARM.Collect$$rtentry$$0000000A) refers to libinit.o(.ARM.Collect$$libinit$$00000000) for __rt_lib_init
    rtentry2.o(.ARM.Collect$$rtentry$$0000000B) refers to boardinit3.o(.text) for _platform_post_lib_init
    rtentry2.o(.ARM.Collect$$rtentry$$0000000D) refers to main.o(.text) for main
    rtentry2.o(.ARM.Collect$$rtentry$$0000000D) refers to exit.o(.text) for exit
    rtentry2.o(.ARM.exidx) refers to rtentry2.o(.ARM.Collect$$rtentry$$00000001) for .ARM.Collect$$rtentry$$00000001
    rtentry2.o(.ARM.exidx) refers to rtentry2.o(.ARM.Collect$$rtentry$$00000002) for .ARM.Collect$$rtentry$$00000002
    rtentry2.o(.ARM.exidx) refers to rtentry2.o(.ARM.Collect$$rtentry$$00000008) for .ARM.Collect$$rtentry$$00000008
    rtentry2.o(.ARM.exidx) refers to rtentry2.o(.ARM.Collect$$rtentry$$00000009) for .ARM.Collect$$rtentry$$00000009
    rtentry2.o(.ARM.exidx) refers to rtentry2.o(.ARM.Collect$$rtentry$$0000000A) for .ARM.Collect$$rtentry$$0000000A
    rtentry2.o(.ARM.exidx) refers to rtentry2.o(.ARM.Collect$$rtentry$$0000000B) for .ARM.Collect$$rtentry$$0000000B
    rtentry2.o(.ARM.exidx) refers to rtentry2.o(.ARM.Collect$$rtentry$$0000000C) for .ARM.Collect$$rtentry$$0000000C
    rtentry2.o(.ARM.exidx) refers to rtentry2.o(.ARM.Collect$$rtentry$$0000000D) for .ARM.Collect$$rtentry$$0000000D
    rtentry4.o(.ARM.Collect$$rtentry$$00000004) refers to sys_stackheap_outer.o(.text) for __user_setup_stackheap
    rtentry4.o(.ARM.exidx) refers to rtentry4.o(.ARM.Collect$$rtentry$$00000004) for .ARM.Collect$$rtentry$$00000004
    maybetermalloc2.o(.emb_text) refers (Special) to term_alloc.o(.text) for _terminate_alloc
    h1_extend.o(.text) refers to h1_free.o(.text) for free
    h1_extend_mt.o(.text) refers to h1_free_mt.o(.text) for _free_internal
    _printf_fp_dec.o(.text) refers (Special) to usenofp.o(x$fpl$usenofp) for __I$use$fp
    _printf_fp_dec.o(.text) refers (Special) to lc_numeric_c.o(locale$$code) for _get_lc_numeric
    _printf_fp_dec.o(.text) refers to bigflt0.o(.text) for _btod_etento
    _printf_fp_dec.o(.text) refers to btod.o(CL$$btod_d2e) for _btod_d2e
    _printf_fp_dec.o(.text) refers to btod.o(CL$$btod_ediv) for _btod_ediv
    _printf_fp_dec.o(.text) refers to btod.o(CL$$btod_emul) for _btod_emul
    _printf_fp_dec.o(.text) refers to lludiv10.o(.text) for _ll_udiv10
    _printf_fp_dec.o(.text) refers to fpclassify.o(i.__ARM_fpclassify) for __ARM_fpclassify
    _printf_fp_dec.o(.text) refers to _printf_fp_infnan.o(.text) for _printf_fp_infnan
    _printf_fp_dec.o(.text) refers to rtudiv10.o(.text) for __rt_udiv10
    _printf_fp_dec.o(.text) refers (Weak) to _printf_pad.o(.text) for _printf_pre_padding
    _printf_fp_dec.o(.text) refers (Weak) to _printf_pad.o(.text) for _printf_pre_padding
    _printf_fp_dec.o(.text) refers to rt_locale_intlibspace.o(.text) for __rt_locale
    _printf_fp_dec.o(.text) refers (Weak) to _printf_pad.o(.text) for _printf_post_padding
    _printf_wchar.o(.text) refers (Weak) to _printf_wctomb.o(.text) for _printf_wctomb
    _wcrtomb.o(.text) refers to rt_ctype_table.o(.text) for __rt_ctype_table
    defsig_rtmem_outer.o(.text) refers to defsig_rtmem_inner.o(.text) for __rt_SIGRTMEM_inner
    defsig_rtmem_outer.o(.text) refers to defsig_exit.o(.text) for __sig_exit
    defsig_rtmem_formal.o(.text) refers to rt_raise.o(.text) for __rt_raise
    heapauxa.o(.text) refers to heapauxa.o(.data) for .data
    argv_veneer.o(.emb_text) refers to no_argv.o(.text) for __ARM_get_argv
    sys_stackheap_outer.o(.text) refers to libspace.o(.text) for __user_perproc_libspace
    sys_stackheap_outer.o(.text) refers to rt_sys_s.o(rt_sys) for __user_initial_stackheap
    rt_ctype_table.o(.text) refers to rt_locale_intlibspace.o(.text) for __rt_locale
    rt_ctype_table.o(.text) refers to lc_ctype_c.o(locale$$code) for _get_lc_ctype
    rt_raise.o(.text) refers to __raise.o(.text) for __raise
    rt_raise.o(.text) refers to rt_sys_c.o(.text) for _sys_exit
    rt_locale.o(.text) refers to rt_locale.o(.bss) for __rt_locale_data
    rt_locale_intlibspace.o(.text) refers to libspace.o(.bss) for __libspace_start
    term_alloc.o(.text) refers (Special) to libshutdown2.o(.ARM.Collect$$libshutdown$$0000000D) for __rt_lib_shutdown_heap_2
    term_alloc.o(.text) refers to rt_heap_descriptor_intlibspace.o(.text) for __rt_heap_descriptor
    term_alloc.o(.text) refers to h1_final.o(.text) for __Heap_Finalize
    _printf_fp_infnan.o(.text) refers (Weak) to _printf_pad.o(.text) for _printf_pre_padding
    _printf_fp_infnan.o(.text) refers (Weak) to _printf_pad.o(.text) for _printf_post_padding
    bigflt0.o(.text) refers (Special) to usenofp.o(x$fpl$usenofp) for __I$use$fp
    bigflt0.o(.text) refers to btod.o(CL$$btod_emul) for _btod_emul
    bigflt0.o(.text) refers to btod.o(CL$$btod_ediv) for _btod_ediv
    bigflt0.o(.text) refers to bigflt0.o(.constdata) for .constdata
    bigflt0.o(.constdata) refers (Special) to usenofp.o(x$fpl$usenofp) for __I$use$fp
    btod.o(CL$$btod_d2e) refers (Special) to usenofp.o(x$fpl$usenofp) for __I$use$fp
    btod.o(CL$$btod_d2e) refers to btod.o(CL$$btod_d2e_norm_op1) for _d2e_norm_op1
    btod.o(CL$$btod_d2e_norm_op1) refers (Special) to usenofp.o(x$fpl$usenofp) for __I$use$fp
    btod.o(CL$$btod_d2e_norm_op1) refers to btod.o(CL$$btod_d2e_denorm_low) for _d2e_denorm_low
    btod.o(CL$$btod_d2e_denorm_low) refers (Special) to usenofp.o(x$fpl$usenofp) for __I$use$fp
    btod.o(CL$$btod_emul) refers (Special) to usenofp.o(x$fpl$usenofp) for __I$use$fp
    btod.o(CL$$btod_emul) refers to btod.o(CL$$btod_mult_common) for __btod_mult_common
    btod.o(CL$$btod_emul) refers to btod.o(CL$$btod_e2e) for _e2e
    btod.o(CL$$btod_ediv) refers (Special) to usenofp.o(x$fpl$usenofp) for __I$use$fp
    btod.o(CL$$btod_ediv) refers to btod.o(CL$$btod_div_common) for __btod_div_common
    btod.o(CL$$btod_ediv) refers to btod.o(CL$$btod_e2e) for _e2e
    btod.o(CL$$btod_emuld) refers (Special) to usenofp.o(x$fpl$usenofp) for __I$use$fp
    btod.o(CL$$btod_emuld) refers to btod.o(CL$$btod_mult_common) for __btod_mult_common
    btod.o(CL$$btod_emuld) refers to btod.o(CL$$btod_e2d) for _e2d
    btod.o(CL$$btod_edivd) refers (Special) to usenofp.o(x$fpl$usenofp) for __I$use$fp
    btod.o(CL$$btod_edivd) refers to btod.o(CL$$btod_div_common) for __btod_div_common
    btod.o(CL$$btod_edivd) refers to btod.o(CL$$btod_e2d) for _e2d
    btod.o(CL$$btod_e2e) refers (Special) to usenofp.o(x$fpl$usenofp) for __I$use$fp
    btod.o(CL$$btod_e2d) refers (Special) to usenofp.o(x$fpl$usenofp) for __I$use$fp
    btod.o(CL$$btod_e2d) refers to btod.o(CL$$btod_e2e) for _e2e
    btod.o(CL$$btod_mult_common) refers (Special) to usenofp.o(x$fpl$usenofp) for __I$use$fp
    btod.o(CL$$btod_div_common) refers (Special) to usenofp.o(x$fpl$usenofp) for __I$use$fp
    lc_numeric_c.o(locale$$data) refers (Special) to libinit2.o(.ARM.Collect$$libinit$$00000012) for __rt_lib_init_lc_numeric_2
    lc_numeric_c.o(locale$$code) refers (Special) to libinit2.o(.ARM.Collect$$libinit$$00000012) for __rt_lib_init_lc_numeric_2
    lc_numeric_c.o(locale$$code) refers to strcmpv7m.o(.text) for strcmp
    lc_numeric_c.o(locale$$code) refers to lc_numeric_c.o(locale$$data) for __lcnum_c_name
    exit.o(.text) refers to rtexit.o(.ARM.Collect$$rtexit$$00000000) for __rt_exit
    defsig_exit.o(.text) refers to rt_sys_c.o(.text) for _sys_exit
    defsig_rtmem_inner.o(.text) refers to defsig_general.o(.text) for __default_signal_display
    _get_argv_nomalloc.o(.text) refers (Special) to hrguard.o(.text) for __heap_region$guard
    _get_argv_nomalloc.o(.text) refers to defsig_rtmem_outer.o(.text) for __rt_SIGRTMEM
    _get_argv_nomalloc.o(.text) refers to rt_sys_c.o(.text) for _sys_command_string
    libinit.o(.ARM.Collect$$libinit$$00000000) refers (Special) to libinit2.o(.ARM.Collect$$libinit$$0000002A) for __rt_lib_init_alloca_1
    libinit.o(.ARM.Collect$$libinit$$00000000) refers (Special) to libinit2.o(.ARM.Collect$$libinit$$00000028) for __rt_lib_init_argv_1
    libinit.o(.ARM.Collect$$libinit$$00000000) refers (Special) to libinit2.o(.ARM.Collect$$libinit$$00000017) for __rt_lib_init_atexit_1
    libinit.o(.ARM.Collect$$libinit$$00000000) refers (Special) to libinit2.o(.ARM.Collect$$libinit$$0000001D) for __rt_lib_init_clock_1
    libinit.o(.ARM.Collect$$libinit$$00000000) refers (Special) to libinit2.o(.ARM.Collect$$libinit$$0000002E) for __rt_lib_init_cpp_1
    libinit.o(.ARM.Collect$$libinit$$00000000) refers (Special) to libinit2.o(.ARM.Collect$$libinit$$0000002C) for __rt_lib_init_exceptions_1
    libinit.o(.ARM.Collect$$libinit$$00000000) refers (Special) to libinit2.o(.ARM.Collect$$libinit$$0000001B) for __rt_lib_init_fp_trap_1
    libinit.o(.ARM.Collect$$libinit$$00000000) refers (Special) to libinit2.o(.ARM.Collect$$libinit$$0000001F) for __rt_lib_init_getenv_1
    libinit.o(.ARM.Collect$$libinit$$00000000) refers (Special) to libinit2.o(.ARM.Collect$$libinit$$00000006) for __rt_lib_init_heap_1
    libinit.o(.ARM.Collect$$libinit$$00000000) refers (Special) to libinit2.o(.ARM.Collect$$libinit$$0000000D) for __rt_lib_init_lc_collate_1
    libinit.o(.ARM.Collect$$libinit$$00000000) refers (Special) to libinit2.o(.ARM.Collect$$libinit$$0000000F) for __rt_lib_init_lc_ctype_1
    libinit.o(.ARM.Collect$$libinit$$00000000) refers (Special) to libinit2.o(.ARM.Collect$$libinit$$00000011) for __rt_lib_init_lc_monetary_1
    libinit.o(.ARM.Collect$$libinit$$00000000) refers (Special) to libinit2.o(.ARM.Collect$$libinit$$00000013) for __rt_lib_init_lc_numeric_1
    libinit.o(.ARM.Collect$$libinit$$00000000) refers (Special) to libinit2.o(.ARM.Collect$$libinit$$00000015) for __rt_lib_init_lc_time_1
    libinit.o(.ARM.Collect$$libinit$$00000000) refers (Special) to libinit2.o(.ARM.Collect$$libinit$$0000000A) for __rt_lib_init_rand_1
    libinit.o(.ARM.Collect$$libinit$$00000000) refers (Special) to libinit2.o(.ARM.Collect$$libinit$$0000002F) for __rt_lib_init_return
    libinit.o(.ARM.Collect$$libinit$$00000000) refers (Special) to libinit2.o(.ARM.Collect$$libinit$$00000019) for __rt_lib_init_signal_1
    libinit.o(.ARM.Collect$$libinit$$00000000) refers (Special) to libinit2.o(.ARM.Collect$$libinit$$00000021) for __rt_lib_init_stdio_1
    libinit.o(.ARM.Collect$$libinit$$00000000) refers (Special) to libinit2.o(.ARM.Collect$$libinit$$00000008) for __rt_lib_init_user_alloc_1
    libinit.o(.ARM.Collect$$libinit$$00000000) refers to fpinit.o(x$fpl$fpinit) for _fp_init
    istatus.o(x$fpl$ieeestatus) refers (Special) to usenofp.o(x$fpl$usenofp) for __I$use$fp
    fpclassify.o(i.__ARM_fpclassify) refers (Special) to usenofp.o(x$fpl$usenofp) for __I$use$fp
    rtexit.o(.ARM.Collect$$rtexit$$00000000) refers (Special) to rtexit2.o(.ARM.Collect$$rtexit$$00000004) for __rt_exit_exit
    rtexit.o(.ARM.Collect$$rtexit$$00000000) refers (Special) to rtexit2.o(.ARM.Collect$$rtexit$$00000003) for __rt_exit_ls
    rtexit.o(.ARM.Collect$$rtexit$$00000000) refers (Special) to rtexit2.o(.ARM.Collect$$rtexit$$00000002) for __rt_exit_prels_1
    rtexit.o(.ARM.exidx) refers (Special) to rtexit2.o(.ARM.Collect$$rtexit$$00000004) for __rt_exit_exit
    rtexit.o(.ARM.exidx) refers (Special) to rtexit2.o(.ARM.Collect$$rtexit$$00000003) for __rt_exit_ls
    rtexit.o(.ARM.exidx) refers (Special) to rtexit2.o(.ARM.Collect$$rtexit$$00000002) for __rt_exit_prels_1
    rtexit.o(.ARM.exidx) refers to rtexit.o(.ARM.Collect$$rtexit$$00000000) for .ARM.Collect$$rtexit$$00000000
    lc_ctype_c.o(locale$$data) refers (Special) to libinit2.o(.ARM.Collect$$libinit$$0000000E) for __rt_lib_init_lc_ctype_2
    lc_ctype_c.o(locale$$code) refers (Special) to libinit2.o(.ARM.Collect$$libinit$$0000000E) for __rt_lib_init_lc_ctype_2
    lc_ctype_c.o(locale$$code) refers to strcmpv7m.o(.text) for strcmp
    lc_ctype_c.o(locale$$code) refers to lc_ctype_c.o(locale$$data) for __lcctype_c_name
    __raise.o(.text) refers to defsig.o(CL$$defsig) for __default_signal_handler
    defsig_general.o(.text) refers to rt_sys_c.o(.text) for _ttywrch
    libshutdown2.o(.ARM.Collect$$libshutdown$$0000000C) refers (Weak) to term_alloc.o(.text) for _terminate_alloc
    fpinit.o(x$fpl$fpinit) refers to rt_fp_status_addr_intlibspace.o(.text) for __rt_fp_status_addr
    rtexit2.o(.ARM.Collect$$rtexit$$00000003) refers to libshutdown.o(.ARM.Collect$$libshutdown$$00000000) for __rt_lib_shutdown
    rtexit2.o(.ARM.Collect$$rtexit$$00000004) refers to rt_sys_c.o(.text) for _sys_exit
    rtexit2.o(.ARM.exidx) refers to rtexit2.o(.ARM.Collect$$rtexit$$00000001) for .ARM.Collect$$rtexit$$00000001
    rtexit2.o(.ARM.exidx) refers to rtexit2.o(.ARM.Collect$$rtexit$$00000002) for .ARM.Collect$$rtexit$$00000002
    rtexit2.o(.ARM.exidx) refers to rtexit2.o(.ARM.Collect$$rtexit$$00000003) for .ARM.Collect$$rtexit$$00000003
    rtexit2.o(.ARM.exidx) refers to rtexit2.o(.ARM.Collect$$rtexit$$00000004) for .ARM.Collect$$rtexit$$00000004
    rt_fp_status_addr.o(.text) refers to rt_fp_status_addr.o(.bss) for __rt_fp_status_addr_data
    rt_fp_status_addr_intlibspace.o(.text) refers to libspace.o(.bss) for __libspace_start
    defsig.o(CL$$defsig) refers to defsig_rtmem_inner.o(.text) for __rt_SIGRTMEM_inner
    defsig_abrt_inner.o(.text) refers to defsig_general.o(.text) for __default_signal_display
    defsig_fpe_inner.o(.text) refers to defsig_general.o(.text) for __default_signal_display
    defsig_rtred_inner.o(.text) refers to defsig_general.o(.text) for __default_signal_display
    defsig_stak_inner.o(.text) refers to defsig_general.o(.text) for __default_signal_display
    defsig_pvfn_inner.o(.text) refers to defsig_general.o(.text) for __default_signal_display
    defsig_cppl_inner.o(.text) refers to defsig_general.o(.text) for __default_signal_display
    defsig_segv_inner.o(.text) refers to defsig_general.o(.text) for __default_signal_display
    defsig_other.o(.text) refers to defsig_general.o(.text) for __default_signal_display
    libshutdown.o(.ARM.Collect$$libshutdown$$00000000) refers (Special) to libshutdown2.o(.ARM.Collect$$libshutdown$$00000006) for __rt_lib_shutdown_fp_trap_1
    libshutdown.o(.ARM.Collect$$libshutdown$$00000000) refers (Special) to libshutdown2.o(.ARM.Collect$$libshutdown$$0000000E) for __rt_lib_shutdown_heap_1
    libshutdown.o(.ARM.Collect$$libshutdown$$00000000) refers (Special) to libshutdown2.o(.ARM.Collect$$libshutdown$$0000000F) for __rt_lib_shutdown_return
    libshutdown.o(.ARM.Collect$$libshutdown$$00000000) refers (Special) to libshutdown2.o(.ARM.Collect$$libshutdown$$00000009) for __rt_lib_shutdown_signal_1
    libshutdown.o(.ARM.Collect$$libshutdown$$00000000) refers (Special) to libshutdown2.o(.ARM.Collect$$libshutdown$$00000003) for __rt_lib_shutdown_stdio_1
    libshutdown.o(.ARM.Collect$$libshutdown$$00000000) refers (Special) to libshutdown2.o(.ARM.Collect$$libshutdown$$0000000B) for __rt_lib_shutdown_user_alloc_1


==============================================================================

Removing Unused input sections from the image.

    Removing gprsapi.o(.data), (4 bytes).
    Removing mdbchanger.o(.bss), (32 bytes).
    Removing mdbchanger.o(.data), (1 bytes).
    Removing lfmdbreader.o(.text), (3460 bytes).
    Removing lfmdbreader.o(.constdata), (73 bytes).
    Removing lfmdbreader.o(.data), (1 bytes).
    Removing xmt.o(.data), (6 bytes).
    Removing os_mutex.o(.text), (1368 bytes).

8 unused section(s) (total 4945 bytes) removed from the image.

==============================================================================

Image Symbol Table

    Local Symbols

    Symbol Name                              Value     Ov Type        Size  Object(Section)

    .constdata                               0x00000000   Section      204  vector_table.o(.constdata)
    ../../angel/boardlib.s                   0x00000000   Number         0  boardinit3.o ABSOLUTE
    ../../angel/boardlib.s                   0x00000000   Number         0  boardshut.o ABSOLUTE
    ../../angel/boardlib.s                   0x00000000   Number         0  boardinit2.o ABSOLUTE
    ../../angel/boardlib.s                   0x00000000   Number         0  boardinit1.o ABSOLUTE
    ../../angel/dclz77c.s                    0x00000000   Number         0  __dclz77c.o ABSOLUTE
    ../../angel/handlers.s                   0x00000000   Number         0  __scatter_copy.o ABSOLUTE
    ../../angel/handlers.s                   0x00000000   Number         0  __scatter_zi.o ABSOLUTE
    ../../angel/kernel.s                     0x00000000   Number         0  rtexit2.o ABSOLUTE
    ../../angel/kernel.s                     0x00000000   Number         0  rtentry2.o ABSOLUTE
    ../../angel/kernel.s                     0x00000000   Number         0  rtentry4.o ABSOLUTE
    ../../angel/kernel.s                     0x00000000   Number         0  rtentry.o ABSOLUTE
    ../../angel/kernel.s                     0x00000000   Number         0  rtexit.o ABSOLUTE
    ../../angel/rt.s                         0x00000000   Number         0  rt_locale_intlibspace.o ABSOLUTE
    ../../angel/rt.s                         0x00000000   Number         0  rt_locale.o ABSOLUTE
    ../../angel/rt.s                         0x00000000   Number         0  rt_fp_status_addr_intlibspace.o ABSOLUTE
    ../../angel/rt.s                         0x00000000   Number         0  rt_fp_status_addr.o ABSOLUTE
    ../../angel/rt.s                         0x00000000   Number         0  rt_raise.o ABSOLUTE
    ../../angel/rt.s                         0x00000000   Number         0  rt_heap_descriptor.o ABSOLUTE
    ../../angel/rt.s                         0x00000000   Number         0  rt_heap_descriptor_intlibspace.o ABSOLUTE
    ../../angel/rt.s                         0x00000000   Number         0  rt_ctype_table.o ABSOLUTE
    ../../angel/scatter.s                    0x00000000   Number         0  __scatter.o ABSOLUTE
    ../../angel/startup.s                    0x00000000   Number         0  __main.o ABSOLUTE
    ../../angel/sys.s                        0x00000000   Number         0  use_no_semi.o ABSOLUTE
    ../../angel/sys.s                        0x00000000   Number         0  libspace.o ABSOLUTE
    ../../angel/sys.s                        0x00000000   Number         0  mutex_dummy.o ABSOLUTE
    ../../angel/sys.s                        0x00000000   Number         0  sys_stackheap_outer.o ABSOLUTE
    ../../armsys.c                           0x00000000   Number         0  _get_argv.o ABSOLUTE
    ../../armsys.c                           0x00000000   Number         0  argv_veneer.o ABSOLUTE
    ../../armsys.c                           0x00000000   Number         0  argv_veneer.o ABSOLUTE
    ../../armsys.c                           0x00000000   Number         0  no_argv.o ABSOLUTE
    ../../armsys.c                           0x00000000   Number         0  _get_argv_nomalloc.o ABSOLUTE
    ../../bigflt.c                           0x00000000   Number         0  bigflt0.o ABSOLUTE
    ../../btod.s                             0x00000000   Number         0  btod.o ABSOLUTE
    ../../division_7m.s                      0x00000000   Number         0  rtudiv10.o ABSOLUTE
    ../../fpclassify.c                       0x00000000   Number         0  fpclassify.o ABSOLUTE
    ../../fpinit.s                           0x00000000   Number         0  fpinit.o ABSOLUTE
    ../../heap1.c                            0x00000000   Number         0  h1_extend.o ABSOLUTE
    ../../heap1.c                            0x00000000   Number         0  h1_init_mt.o ABSOLUTE
    ../../heap1.c                            0x00000000   Number         0  h1_final_mt.o ABSOLUTE
    ../../heap1.c                            0x00000000   Number         0  h1_final.o ABSOLUTE
    ../../heap1.c                            0x00000000   Number         0  h1_alloc.o ABSOLUTE
    ../../heap1.c                            0x00000000   Number         0  h1_free.o ABSOLUTE
    ../../heap1.c                            0x00000000   Number         0  h1_alloc_mt.o ABSOLUTE
    ../../heap1.c                            0x00000000   Number         0  h1_free_mt.o ABSOLUTE
    ../../heap1.c                            0x00000000   Number         0  h1_init.o ABSOLUTE
    ../../heap1.c                            0x00000000   Number         0  h1_extend_mt.o ABSOLUTE
    ../../heap2.c                            0x00000000   Number         0  heap2mt.o ABSOLUTE
    ../../heap2.c                            0x00000000   Number         0  fdtree.o ABSOLUTE
    ../../heap2.c                            0x00000000   Number         0  heap2.o ABSOLUTE
    ../../heapalloc.c                        0x00000000   Number         0  maybetermalloc2.o ABSOLUTE
    ../../heapalloc.c                        0x00000000   Number         0  malloc.o ABSOLUTE
    ../../heapalloc.c                        0x00000000   Number         0  maybetermalloc2.o ABSOLUTE
    ../../heapalloc.c                        0x00000000   Number         0  free.o ABSOLUTE
    ../../heapalloc.c                        0x00000000   Number         0  maybetermalloc1.o ABSOLUTE
    ../../heapalloc.c                        0x00000000   Number         0  hrguard.o ABSOLUTE
    ../../heapalloc.c                        0x00000000   Number         0  maybetermalloc1.o ABSOLUTE
    ../../heapalloc.c                        0x00000000   Number         0  hguard.o ABSOLUTE
    ../../heapalloc.c                        0x00000000   Number         0  init_alloc.o ABSOLUTE
    ../../heapalloc.c                        0x00000000   Number         0  heapstubs.o ABSOLUTE
    ../../heapalloc.c                        0x00000000   Number         0  term_alloc.o ABSOLUTE
    ../../heapaux.c                          0x00000000   Number         0  heapauxi.o ABSOLUTE
    ../../heapaux.c                          0x00000000   Number         0  heapauxa.o ABSOLUTE
    ../../istatus.s                          0x00000000   Number         0  istatus.o ABSOLUTE
    ../../libinit.s                          0x00000000   Number         0  libshutdown.o ABSOLUTE
    ../../libinit.s                          0x00000000   Number         0  libinit.o ABSOLUTE
    ../../libinit.s                          0x00000000   Number         0  libshutdown2.o ABSOLUTE
    ../../libinit.s                          0x00000000   Number         0  libinit2.o ABSOLUTE
    ../../locale.c                           0x00000000   Number         0  _wcrtomb.o ABSOLUTE
    ../../locale.s                           0x00000000   Number         0  lc_numeric_c.o ABSOLUTE
    ../../locale.s                           0x00000000   Number         0  lc_ctype_c.o ABSOLUTE
    ../../longlong.s                         0x00000000   Number         0  lludiv10.o ABSOLUTE
    ../../memcpset.s                         0x00000000   Number         0  rt_memclr.o ABSOLUTE
    ../../memcpset.s                         0x00000000   Number         0  aeabi_memset.o ABSOLUTE
    ../../memcpset.s                         0x00000000   Number         0  rt_memcpy_w.o ABSOLUTE
    ../../memcpset.s                         0x00000000   Number         0  rt_memcpy_v6.o ABSOLUTE
    ../../memcpset.s                         0x00000000   Number         0  strcmpv7m.o ABSOLUTE
    ../../memcpset.s                         0x00000000   Number         0  strncpy.o ABSOLUTE
    ../../memcpset.s                         0x00000000   Number         0  rt_memclr_w.o ABSOLUTE
    ../../misc.s                             0x00000000   Number         0  printf_stubs.o ABSOLUTE
    ../../printf.c                           0x00000000   Number         0  noretval__2snprintf.o ABSOLUTE
    ../../printf.c                           0x00000000   Number         0  noretval__2sprintf.o ABSOLUTE
    ../../printf.c                           0x00000000   Number         0  __2snprintf.o ABSOLUTE
    ../../printf.c                           0x00000000   Number         0  __2sprintf.o ABSOLUTE
    ../../printf.c                           0x00000000   Number         0  c89vsprintf.o ABSOLUTE
    ../../printf.c                           0x00000000   Number         0  __printf.o ABSOLUTE
    ../../printf.c                           0x00000000   Number         0  _printf_hex_int.o ABSOLUTE
    ../../printf.c                           0x00000000   Number         0  _printf_fp_infnan.o ABSOLUTE
    ../../printf.c                           0x00000000   Number         0  _printf_wchar.o ABSOLUTE
    ../../printf.c                           0x00000000   Number         0  _printf_fp_dec.o ABSOLUTE
    ../../printf.c                           0x00000000   Number         0  __printf_nopercent.o ABSOLUTE
    ../../printf.c                           0x00000000   Number         0  _printf_hex_int_ll.o ABSOLUTE
    ../../printf.c                           0x00000000   Number         0  _printf_hex_ptr.o ABSOLUTE
    ../../printf.c                           0x00000000   Number         0  _printf_hex_int_ptr.o ABSOLUTE
    ../../printf.c                           0x00000000   Number         0  _printf_oct_int_ll.o ABSOLUTE
    ../../printf.c                           0x00000000   Number         0  _printf_oct_int.o ABSOLUTE
    ../../printf.c                           0x00000000   Number         0  _printf_oct_ll.o ABSOLUTE
    ../../printf.c                           0x00000000   Number         0  _printf_longlong_dec.o ABSOLUTE
    ../../printf.c                           0x00000000   Number         0  _printf_hex_ll_ptr.o ABSOLUTE
    ../../printf.c                           0x00000000   Number         0  _printf_hex_int_ll_ptr.o ABSOLUTE
    ../../printf.c                           0x00000000   Number         0  __printf_flags.o ABSOLUTE
    ../../printf.c                           0x00000000   Number         0  _printf_wctomb.o ABSOLUTE
    ../../printf.c                           0x00000000   Number         0  _printf_char.o ABSOLUTE
    ../../printf.c                           0x00000000   Number         0  _snputc.o ABSOLUTE
    ../../printf.c                           0x00000000   Number         0  _sputc.o ABSOLUTE
    ../../printf.c                           0x00000000   Number         0  _printf_char_common.o ABSOLUTE
    ../../printf.c                           0x00000000   Number         0  _printf_charcount.o ABSOLUTE
    ../../printf.c                           0x00000000   Number         0  _printf_intcommon.o ABSOLUTE
    ../../printf.c                           0x00000000   Number         0  __printf_ss.o ABSOLUTE
    ../../printf.c                           0x00000000   Number         0  __printf_flags_ss.o ABSOLUTE
    ../../printf.c                           0x00000000   Number         0  _printf_truncate.o ABSOLUTE
    ../../printf.c                           0x00000000   Number         0  __printf_wp.o ABSOLUTE
    ../../printf.c                           0x00000000   Number         0  __printf_flags_wp.o ABSOLUTE
    ../../printf.c                           0x00000000   Number         0  __printf_ss_wp.o ABSOLUTE
    ../../printf.c                           0x00000000   Number         0  __printf_flags_ss_wp.o ABSOLUTE
    ../../printf.c                           0x00000000   Number         0  _printf_hex_ll.o ABSOLUTE
    ../../printf.c                           0x00000000   Number         0  _printf_dec.o ABSOLUTE
    ../../printf.c                           0x00000000   Number         0  _printf_str.o ABSOLUTE
    ../../printf.c                           0x00000000   Number         0  _printf_pad.o ABSOLUTE
    ../../printf1.s                          0x00000000   Number         0  printf1.o ABSOLUTE
    ../../printf_percent.s                   0x00000000   Number         0  _printf_f.o ABSOLUTE
    ../../printf_percent.s                   0x00000000   Number         0  _printf_ll.o ABSOLUTE
    ../../printf_percent.s                   0x00000000   Number         0  _printf_u.o ABSOLUTE
    ../../printf_percent.s                   0x00000000   Number         0  _printf_percent_end.o ABSOLUTE
    ../../printf_percent.s                   0x00000000   Number         0  _printf_lc.o ABSOLUTE
    ../../printf_percent.s                   0x00000000   Number         0  _printf_llu.o ABSOLUTE
    ../../printf_percent.s                   0x00000000   Number         0  _printf_lld.o ABSOLUTE
    ../../printf_percent.s                   0x00000000   Number         0  _printf_c.o ABSOLUTE
    ../../printf_percent.s                   0x00000000   Number         0  _printf_l.o ABSOLUTE
    ../../printf_percent.s                   0x00000000   Number         0  _printf_e.o ABSOLUTE
    ../../printf_percent.s                   0x00000000   Number         0  _printf_d.o ABSOLUTE
    ../../printf_percent.s                   0x00000000   Number         0  _printf_x.o ABSOLUTE
    ../../printf_percent.s                   0x00000000   Number         0  _printf_g.o ABSOLUTE
    ../../printf_percent.s                   0x00000000   Number         0  _printf_o.o ABSOLUTE
    ../../printf_percent.s                   0x00000000   Number         0  _printf_s.o ABSOLUTE
    ../../printf_percent.s                   0x00000000   Number         0  _printf_i.o ABSOLUTE
    ../../printf_percent.s                   0x00000000   Number         0  _printf_llx.o ABSOLUTE
    ../../printf_percent.s                   0x00000000   Number         0  _printf_n.o ABSOLUTE
    ../../printf_percent.s                   0x00000000   Number         0  _printf_lli.o ABSOLUTE
    ../../printf_percent.s                   0x00000000   Number         0  _printf_percent.o ABSOLUTE
    ../../printf_percent.s                   0x00000000   Number         0  _printf_p.o ABSOLUTE
    ../../printf_percent.s                   0x00000000   Number         0  _printf_a.o ABSOLUTE
    ../../printf_percent.s                   0x00000000   Number         0  _printf_ls.o ABSOLUTE
    ../../printf_percent.s                   0x00000000   Number         0  _printf_llo.o ABSOLUTE
    ../../signal.c                           0x00000000   Number         0  defsig_abrt_inner.o ABSOLUTE
    ../../signal.c                           0x00000000   Number         0  defsig_general.o ABSOLUTE
    ../../signal.c                           0x00000000   Number         0  __raise.o ABSOLUTE
    ../../signal.c                           0x00000000   Number         0  defsig_rtmem_outer.o ABSOLUTE
    ../../signal.c                           0x00000000   Number         0  defsig_rtmem_formal.o ABSOLUTE
    ../../signal.c                           0x00000000   Number         0  defsig_stak_inner.o ABSOLUTE
    ../../signal.c                           0x00000000   Number         0  defsig_exit.o ABSOLUTE
    ../../signal.c                           0x00000000   Number         0  defsig_rtmem_inner.o ABSOLUTE
    ../../signal.c                           0x00000000   Number         0  defsig_pvfn_inner.o ABSOLUTE
    ../../signal.c                           0x00000000   Number         0  defsig_segv_inner.o ABSOLUTE
    ../../signal.c                           0x00000000   Number         0  defsig_other.o ABSOLUTE
    ../../signal.c                           0x00000000   Number         0  defsig_rtred_inner.o ABSOLUTE
    ../../signal.c                           0x00000000   Number         0  defsig_fpe_inner.o ABSOLUTE
    ../../signal.c                           0x00000000   Number         0  defsig_cppl_inner.o ABSOLUTE
    ../../signal.s                           0x00000000   Number         0  defsig.o ABSOLUTE
    ../../stdlib.c                           0x00000000   Number         0  exit.o ABSOLUTE
    ../../string.c                           0x00000000   Number         0  strlen.o ABSOLUTE
    ../../string.c                           0x00000000   Number         0  strncat.o ABSOLUTE
    ../../string.c                           0x00000000   Number         0  strcat.o ABSOLUTE
    ../../string.c                           0x00000000   Number         0  strstr.o ABSOLUTE
    ../../string.c                           0x00000000   Number         0  strcpy.o ABSOLUTE
    ../../string.c                           0x00000000   Number         0  strncmp.o ABSOLUTE
    ../../time.c                             0x00000000   Number         0  mktime.o ABSOLUTE
    ../../time.c                             0x00000000   Number         0  _monlen.o ABSOLUTE
    ../../usenofp.s                          0x00000000   Number         0  usenofp.o ABSOLUTE
    API\ACDCAPI.c                            0x00000000   Number         0  acdcapi.o ABSOLUTE
    API\BillAccepterAPI.c                    0x00000000   Number         0  billaccepterapi.o ABSOLUTE
    API\ChangerAPI.c                         0x00000000   Number         0  changerapi.o ABSOLUTE
    API\ChannelAPI.c                         0x00000000   Number         0  channelapi.o ABSOLUTE
    API\CheckDeviceState.c                   0x00000000   Number         0  checkdevicestate.o ABSOLUTE
    API\CoinAccepterAPI .c                   0x00000000   Number         0  coinaccepterapi .o ABSOLUTE
    API\GprsAPI.c                            0x00000000   Number         0  gprsapi.o ABSOLUTE
    API\HeFanGuiAPI.c                        0x00000000   Number         0  hefanguiapi.o ABSOLUTE
    API\LiftTableAPI.c                       0x00000000   Number         0  lifttableapi.o ABSOLUTE
    API\LogAPI.c                             0x00000000   Number         0  logapi.o ABSOLUTE
    API\PCComAPI.c                           0x00000000   Number         0  pccomapi.o ABSOLUTE
    API\ReaderAPI.c                          0x00000000   Number         0  readerapi.o ABSOLUTE
    API\SelectKeyAPI.c                       0x00000000   Number         0  selectkeyapi.o ABSOLUTE
    API\TraceAPI.c                           0x00000000   Number         0  traceapi.o ABSOLUTE
    API\TuibiAPI.c                           0x00000000   Number         0  tuibiapi.o ABSOLUTE
    API\ZhiHuiAPI.c                          0x00000000   Number         0  zhihuiapi.o ABSOLUTE
    API\colApi.c                             0x00000000   Number         0  colapi.o ABSOLUTE
    APP\ACDC.C                               0x00000000   Number         0  acdc.o ABSOLUTE
    APP\BUSINESS.C                           0x00000000   Number         0  business.o ABSOLUTE
    APP\CHANNEL.C                            0x00000000   Number         0  channel.o ABSOLUTE
    APP\COMMON.C                             0x00000000   Number         0  common.o ABSOLUTE
    APP\LANGUAGE.C                           0x00000000   Number         0  language.o ABSOLUTE
    APP\LIFTTABLE.c                          0x00000000   Number         0  lifttable.o ABSOLUTE
    APP\MAIN.C                               0x00000000   Number         0  main.o ABSOLUTE
    APP\MAINTAIN.C                           0x00000000   Number         0  maintain.o ABSOLUTE
    Drivers\ACDCDriver.c                     0x00000000   Number         0  acdcdriver.o ABSOLUTE
    Drivers\AT45DB161D.C                     0x00000000   Number         0  at45db161d.o ABSOLUTE
    Drivers\BUZZER.C                         0x00000000   Number         0  buzzer.o ABSOLUTE
    Drivers\BillAccepter.c                   0x00000000   Number         0  billaccepter.o ABSOLUTE
    Drivers\ChannelDriver.c                  0x00000000   Number         0  channeldriver.o ABSOLUTE
    Drivers\CoinAccepter .c                  0x00000000   Number         0  coinaccepter .o ABSOLUTE
    Drivers\EVB_UART2.C                      0x00000000   Number         0  evb_uart2.o ABSOLUTE
    Drivers\GPRS_UART.c                      0x00000000   Number         0  gprs_uart.o ABSOLUTE
    Drivers\HopperDriver.c                   0x00000000   Number         0  hopperdriver.o ABSOLUTE
    Drivers\I2C.C                            0x00000000   Number         0  i2c.o ABSOLUTE
    Drivers\KEY.C                            0x00000000   Number         0  key.o ABSOLUTE
    Drivers\LCD.C                            0x00000000   Number         0  lcd.o ABSOLUTE
    Drivers\LFMDBReader.c                    0x00000000   Number         0  lfmdbreader.o ABSOLUTE
    Drivers\LiftTableDriver.c                0x00000000   Number         0  lifttabledriver.o ABSOLUTE
    Drivers\MDBChanger.c                     0x00000000   Number         0  mdbchanger.o ABSOLUTE
    Drivers\MDBReader.c                      0x00000000   Number         0  mdbreader.o ABSOLUTE
    Drivers\MDB_UART2.C                      0x00000000   Number         0  mdb_uart2.o ABSOLUTE
    Drivers\PCOIN.C                          0x00000000   Number         0  pcoin.o ABSOLUTE
    Drivers\RTC.C                            0x00000000   Number         0  rtc.o ABSOLUTE
    Drivers\TASKDEVICE.C                     0x00000000   Number         0  taskdevice.o ABSOLUTE
    Drivers\TIMER.C                          0x00000000   Number         0  timer.o ABSOLUTE
    Drivers\UART0.C                          0x00000000   Number         0  uart0.o ABSOLUTE
    Drivers\UART1.C                          0x00000000   Number         0  uart1.o ABSOLUTE
    Drivers\UART2.C                          0x00000000   Number         0  uart2.o ABSOLUTE
    Drivers\UART3.C                          0x00000000   Number         0  uart3.o ABSOLUTE
    Firmware\LPC1700PinCfg.c                 0x00000000   Number         0  lpc1700pincfg.o ABSOLUTE
    Firmware\target.c                        0x00000000   Number         0  target.o ABSOLUTE
    Firmware\vector_table.c                  0x00000000   Number         0  vector_table.o ABSOLUTE
    Firmware\zy_if.c                         0x00000000   Number         0  zy_if.o ABSOLUTE
    Startup\rt_sys_c.c                       0x00000000   Number         0  rt_sys_c.o ABSOLUTE
    Startup\rt_sys_s.s                       0x00000000   Number         0  rt_sys_s.o ABSOLUTE
    Uart0Driver\taskUart0Device.c            0x00000000   Number         0  taskuart0device.o ABSOLUTE
    Uart1Driver\FS_billChanger.c             0x00000000   Number         0  fs_billchanger.o ABSOLUTE
    Uart1Driver\HeFanGui.c                   0x00000000   Number         0  hefangui.o ABSOLUTE
    Uart1Driver\SelectKey.c                  0x00000000   Number         0  selectkey.o ABSOLUTE
    Uart1Driver\TASKUART1DEVICE.C            0x00000000   Number         0  taskuart1device.o ABSOLUTE
    Uart1Driver\xmt.c                        0x00000000   Number         0  xmt.o ABSOLUTE
    Uart3Driver\TASKUART3DEVICE.C            0x00000000   Number         0  taskuart3device.o ABSOLUTE
    Uart3Driver\UBProtocol.c                 0x00000000   Number         0  ubprotocol.o ABSOLUTE
    Uart3Driver\UBProtocol_SIMPLE.c          0x00000000   Number         0  ubprotocol_simple.o ABSOLUTE
    Uart3Driver\VMC_GPRS_PC.c                0x00000000   Number         0  vmc_gprs_pc.o ABSOLUTE
    Uart3Driver\ZHIHUIPC.c                   0x00000000   Number         0  zhihuipc.o ABSOLUTE
    ZY_CODE\uCOS-II\hook\OSInitHookBegin.c   0x00000000   Number         0  osinithookbegin.o ABSOLUTE
    ZY_CODE\uCOS-II\hook\OSInitHookEnd.c     0x00000000   Number         0  osinithookend.o ABSOLUTE
    ZY_CODE\uCOS-II\hook\OSTCBInitHook.c     0x00000000   Number         0  ostcbinithook.o ABSOLUTE
    ZY_CODE\uCOS-II\hook\OSTaskCreateHook.c  0x00000000   Number         0  ostaskcreatehook.o ABSOLUTE
    ZY_CODE\uCOS-II\hook\OSTaskDelHook.c     0x00000000   Number         0  ostaskdelhook.o ABSOLUTE
    ZY_CODE\uCOS-II\hook\OSTaskIdleHook.c    0x00000000   Number         0  ostaskidlehook.o ABSOLUTE
    ZY_CODE\uCOS-II\hook\OSTaskStatHook.c    0x00000000   Number         0  ostaskstathook.o ABSOLUTE
    ZY_CODE\uCOS-II\hook\OSTaskSwHook.c      0x00000000   Number         0  ostaskswhook.o ABSOLUTE
    ZY_CODE\uCOS-II\hook\OSTimeTickHook.c    0x00000000   Number         0  ostimetickhook.o ABSOLUTE
    dc.s                                     0x00000000   Number         0  dc.o ABSOLUTE
    uCOS_II\OS_CORE.C                        0x00000000   Number         0  os_core.o ABSOLUTE
    uCOS_II\OS_FLAG.C                        0x00000000   Number         0  os_flag.o ABSOLUTE
    uCOS_II\OS_MBOX.C                        0x00000000   Number         0  os_mbox.o ABSOLUTE
    uCOS_II\OS_MEM.C                         0x00000000   Number         0  os_mem.o ABSOLUTE
    uCOS_II\OS_MUTEX.C                       0x00000000   Number         0  os_mutex.o ABSOLUTE
    uCOS_II\OS_Q.C                           0x00000000   Number         0  os_q.o ABSOLUTE
    uCOS_II\OS_SEM.C                         0x00000000   Number         0  os_sem.o ABSOLUTE
    uCOS_II\OS_TASK.C                        0x00000000   Number         0  os_task.o ABSOLUTE
    uCOS_II\OS_TIME.C                        0x00000000   Number         0  os_time.o ABSOLUTE
    uCOS_II\\cpu\\Os_cpu_c.c                 0x00000000   Number         0  os_cpu_c.o ABSOLUTE
    uCOS_II\cpu\Os_cpu_c.c                   0x00000000   Number         0  os_cpu_c.o ABSOLUTE
    !!!main                                  0x000000cc   Section        8  __main.o(!!!main)
    !!!scatter                               0x000000d4   Section       52  __scatter.o(!!!scatter)
    !!dclz77c                                0x00000108   Section      100  __dclz77c.o(!!dclz77c)
    !!handler_copy                           0x0000016c   Section       26  __scatter_copy.o(!!handler_copy)
    !!handler_zi                             0x00000188   Section       28  __scatter_zi.o(!!handler_zi)
    .ARM.Collect$$_printf_percent$$00000000  0x000001a4   Section        0  _printf_percent.o(.ARM.Collect$$_printf_percent$$00000000)
    .ARM.Collect$$_printf_percent$$00000001  0x000001a4   Section        6  _printf_n.o(.ARM.Collect$$_printf_percent$$00000001)
    .ARM.Collect$$_printf_percent$$00000002  0x000001aa   Section        6  _printf_p.o(.ARM.Collect$$_printf_percent$$00000002)
    .ARM.Collect$$_printf_percent$$00000003  0x000001b0   Section        6  _printf_f.o(.ARM.Collect$$_printf_percent$$00000003)
    .ARM.Collect$$_printf_percent$$00000004  0x000001b6   Section        6  _printf_e.o(.ARM.Collect$$_printf_percent$$00000004)
    .ARM.Collect$$_printf_percent$$00000005  0x000001bc   Section        6  _printf_g.o(.ARM.Collect$$_printf_percent$$00000005)
    .ARM.Collect$$_printf_percent$$00000006  0x000001c2   Section        6  _printf_a.o(.ARM.Collect$$_printf_percent$$00000006)
    .ARM.Collect$$_printf_percent$$00000007  0x000001c8   Section       10  _printf_ll.o(.ARM.Collect$$_printf_percent$$00000007)
    .ARM.Collect$$_printf_percent$$00000008  0x000001d2   Section        6  _printf_i.o(.ARM.Collect$$_printf_percent$$00000008)
    .ARM.Collect$$_printf_percent$$00000009  0x000001d8   Section        6  _printf_d.o(.ARM.Collect$$_printf_percent$$00000009)
    .ARM.Collect$$_printf_percent$$0000000A  0x000001de   Section        6  _printf_u.o(.ARM.Collect$$_printf_percent$$0000000A)
    .ARM.Collect$$_printf_percent$$0000000B  0x000001e4   Section        6  _printf_o.o(.ARM.Collect$$_printf_percent$$0000000B)
    .ARM.Collect$$_printf_percent$$0000000C  0x000001ea   Section        6  _printf_x.o(.ARM.Collect$$_printf_percent$$0000000C)
    .ARM.Collect$$_printf_percent$$0000000D  0x000001f0   Section        6  _printf_lli.o(.ARM.Collect$$_printf_percent$$0000000D)
    .ARM.Collect$$_printf_percent$$0000000E  0x000001f6   Section        6  _printf_lld.o(.ARM.Collect$$_printf_percent$$0000000E)
    .ARM.Collect$$_printf_percent$$0000000F  0x000001fc   Section        6  _printf_llu.o(.ARM.Collect$$_printf_percent$$0000000F)
    .ARM.Collect$$_printf_percent$$00000010  0x00000202   Section        6  _printf_llo.o(.ARM.Collect$$_printf_percent$$00000010)
    .ARM.Collect$$_printf_percent$$00000011  0x00000208   Section        6  _printf_llx.o(.ARM.Collect$$_printf_percent$$00000011)
    .ARM.Collect$$_printf_percent$$00000012  0x0000020e   Section       10  _printf_l.o(.ARM.Collect$$_printf_percent$$00000012)
    .ARM.Collect$$_printf_percent$$00000013  0x00000218   Section        6  _printf_c.o(.ARM.Collect$$_printf_percent$$00000013)
    .ARM.Collect$$_printf_percent$$00000014  0x0000021e   Section        6  _printf_s.o(.ARM.Collect$$_printf_percent$$00000014)
    .ARM.Collect$$_printf_percent$$00000015  0x00000224   Section        6  _printf_lc.o(.ARM.Collect$$_printf_percent$$00000015)
    .ARM.Collect$$_printf_percent$$00000016  0x0000022a   Section        6  _printf_ls.o(.ARM.Collect$$_printf_percent$$00000016)
    .ARM.Collect$$_printf_percent$$00000017  0x00000230   Section        4  _printf_percent_end.o(.ARM.Collect$$_printf_percent$$00000017)
    .ARM.Collect$$libinit$$00000000          0x00000234   Section        6  libinit.o(.ARM.Collect$$libinit$$00000000)
    .ARM.Collect$$libinit$$00000001          0x0000023a   Section        8  libinit2.o(.ARM.Collect$$libinit$$00000001)
    .ARM.Collect$$libinit$$00000006          0x00000242   Section        0  libinit2.o(.ARM.Collect$$libinit$$00000006)
    .ARM.Collect$$libinit$$00000008          0x00000242   Section        0  libinit2.o(.ARM.Collect$$libinit$$00000008)
    .ARM.Collect$$libinit$$0000000A          0x00000242   Section        0  libinit2.o(.ARM.Collect$$libinit$$0000000A)
    .ARM.Collect$$libinit$$0000000B          0x00000242   Section        6  libinit2.o(.ARM.Collect$$libinit$$0000000B)
    .ARM.Collect$$libinit$$0000000D          0x00000248   Section        0  libinit2.o(.ARM.Collect$$libinit$$0000000D)
    .ARM.Collect$$libinit$$0000000E          0x00000248   Section       12  libinit2.o(.ARM.Collect$$libinit$$0000000E)
    .ARM.Collect$$libinit$$0000000F          0x00000254   Section        0  libinit2.o(.ARM.Collect$$libinit$$0000000F)
    .ARM.Collect$$libinit$$00000011          0x00000254   Section        0  libinit2.o(.ARM.Collect$$libinit$$00000011)
    .ARM.Collect$$libinit$$00000012          0x00000254   Section       10  libinit2.o(.ARM.Collect$$libinit$$00000012)
    .ARM.Collect$$libinit$$00000013          0x0000025e   Section        0  libinit2.o(.ARM.Collect$$libinit$$00000013)
    .ARM.Collect$$libinit$$00000015          0x0000025e   Section        0  libinit2.o(.ARM.Collect$$libinit$$00000015)
    .ARM.Collect$$libinit$$00000017          0x0000025e   Section        0  libinit2.o(.ARM.Collect$$libinit$$00000017)
    .ARM.Collect$$libinit$$00000019          0x0000025e   Section        0  libinit2.o(.ARM.Collect$$libinit$$00000019)
    .ARM.Collect$$libinit$$0000001B          0x0000025e   Section        0  libinit2.o(.ARM.Collect$$libinit$$0000001B)
    .ARM.Collect$$libinit$$0000001D          0x0000025e   Section        0  libinit2.o(.ARM.Collect$$libinit$$0000001D)
    .ARM.Collect$$libinit$$0000001F          0x0000025e   Section        0  libinit2.o(.ARM.Collect$$libinit$$0000001F)
    .ARM.Collect$$libinit$$00000021          0x0000025e   Section        0  libinit2.o(.ARM.Collect$$libinit$$00000021)
    .ARM.Collect$$libinit$$00000028          0x0000025e   Section        0  libinit2.o(.ARM.Collect$$libinit$$00000028)
    .ARM.Collect$$libinit$$0000002A          0x0000025e   Section        0  libinit2.o(.ARM.Collect$$libinit$$0000002A)
    .ARM.Collect$$libinit$$0000002C          0x0000025e   Section        0  libinit2.o(.ARM.Collect$$libinit$$0000002C)
    .ARM.Collect$$libinit$$0000002E          0x0000025e   Section        0  libinit2.o(.ARM.Collect$$libinit$$0000002E)
    .ARM.Collect$$libinit$$0000002F          0x0000025e   Section        2  libinit2.o(.ARM.Collect$$libinit$$0000002F)
    .ARM.Collect$$libshutdown$$00000000      0x00000260   Section        2  libshutdown.o(.ARM.Collect$$libshutdown$$00000000)
    .ARM.Collect$$libshutdown$$00000003      0x00000262   Section        0  libshutdown2.o(.ARM.Collect$$libshutdown$$00000003)
    .ARM.Collect$$libshutdown$$00000006      0x00000262   Section        0  libshutdown2.o(.ARM.Collect$$libshutdown$$00000006)
    .ARM.Collect$$libshutdown$$00000009      0x00000262   Section        0  libshutdown2.o(.ARM.Collect$$libshutdown$$00000009)
    .ARM.Collect$$libshutdown$$0000000B      0x00000262   Section        0  libshutdown2.o(.ARM.Collect$$libshutdown$$0000000B)
    .ARM.Collect$$libshutdown$$0000000E      0x00000262   Section        0  libshutdown2.o(.ARM.Collect$$libshutdown$$0000000E)
    .ARM.Collect$$libshutdown$$0000000F      0x00000262   Section        2  libshutdown2.o(.ARM.Collect$$libshutdown$$0000000F)
    .ARM.Collect$$rtentry$$00000000          0x00000264   Section        0  rtentry.o(.ARM.Collect$$rtentry$$00000000)
    .ARM.Collect$$rtentry$$00000002          0x00000264   Section        0  rtentry2.o(.ARM.Collect$$rtentry$$00000002)
    .ARM.Collect$$rtentry$$00000004          0x00000264   Section        6  rtentry4.o(.ARM.Collect$$rtentry$$00000004)
    .ARM.Collect$$rtentry$$00000009          0x0000026a   Section        0  rtentry2.o(.ARM.Collect$$rtentry$$00000009)
    .ARM.Collect$$rtentry$$0000000A          0x0000026a   Section        4  rtentry2.o(.ARM.Collect$$rtentry$$0000000A)
    .ARM.Collect$$rtentry$$0000000C          0x0000026e   Section        0  rtentry2.o(.ARM.Collect$$rtentry$$0000000C)
    .ARM.Collect$$rtentry$$0000000D          0x0000026e   Section        8  rtentry2.o(.ARM.Collect$$rtentry$$0000000D)
    .ARM.Collect$$rtexit$$00000000           0x00000276   Section        2  rtexit.o(.ARM.Collect$$rtexit$$00000000)
    .ARM.Collect$$rtexit$$00000002           0x00000278   Section        0  rtexit2.o(.ARM.Collect$$rtexit$$00000002)
    .ARM.Collect$$rtexit$$00000003           0x00000278   Section        4  rtexit2.o(.ARM.Collect$$rtexit$$00000003)
    .ARM.Collect$$rtexit$$00000004           0x0000027c   Section        6  rtexit2.o(.ARM.Collect$$rtexit$$00000004)
    .emb_text                                0x00000284   Section      298  os_cpu_c.o(.emb_text)
    .emb_text                                0x000003b0   Section        0  maybetermalloc1.o(.emb_text)
    .text                                    0x000003b0   Section        0  main.o(.text)
    .text                                    0x00000540   Section        0  business.o(.text)
    .text                                    0x000049d8   Section        0  maintain.o(.text)
    .text                                    0x0000da34   Section        0  common.o(.text)
    .text                                    0x0000fc54   Section        0  channel.o(.text)
    .text                                    0x00013a20   Section        0  lifttable.o(.text)
    .text                                    0x00014c34   Section        0  acdc.o(.text)
    .text                                    0x00016acc   Section        0  acdcapi.o(.text)
    .text                                    0x00016ed4   Section        0  billaccepterapi.o(.text)
    .text                                    0x00017308   Section        0  coinaccepterapi .o(.text)
    .text                                    0x000174a4   Section        0  tuibiapi.o(.text)
    .text                                    0x0001753c   Section        0  checkdevicestate.o(.text)
    .text                                    0x00017c34   Section        0  logapi.o(.text)
    .text                                    0x000184e8   Section        0  traceapi.o(.text)
    .text                                    0x00018794   Section        0  pccomapi.o(.text)
    .text                                    0x0001a61c   Section        0  lifttableapi.o(.text)
    .text                                    0x0001a914   Section        0  selectkeyapi.o(.text)
    .text                                    0x0001b148   Section        0  channelapi.o(.text)
    .text                                    0x0001e338   Section        0  changerapi.o(.text)
    .text                                    0x0001f3f0   Section        0  readerapi.o(.text)
    .text                                    0x0001f8ac   Section        0  zhihuiapi.o(.text)
    .text                                    0x00020914   Section        0  gprsapi.o(.text)
    .text                                    0x00022120   Section        0  hefanguiapi.o(.text)
    .text                                    0x000248a8   Section        0  colapi.o(.text)
    col_send                                 0x000248c5   Thumb Code    52  colapi.o(.text)
    .text                                    0x00024dc0   Section        0  taskdevice.o(.text)
    .text                                    0x00025cd4   Section        0  mdb_uart2.o(.text)
    .text                                    0x00025dd8   Section        0  evb_uart2.o(.text)
    .text                                    0x000260d8   Section        0  billaccepter.o(.text)
    .text                                    0x00027ccc   Section        0  coinaccepter .o(.text)
    .text                                    0x00028630   Section        0  mdbreader.o(.text)
    .text                                    0x000292b8   Section        0  lifttabledriver.o(.text)
    .text                                    0x000299ec   Section        0  acdcdriver.o(.text)
    .text                                    0x00029a80   Section        0  channeldriver.o(.text)
    .text                                    0x00029c00   Section        0  hopperdriver.o(.text)
    .text                                    0x0002a000   Section        0  mdbchanger.o(.text)
    .text                                    0x0002a2f4   Section        0  taskuart3device.o(.text)
    .text                                    0x0002b250   Section        0  zhihuipc.o(.text)
    pc_date_set                              0x0002b505   Thumb Code   222  zhihuipc.o(.text)
    pc_cost_trade                            0x0002b8a5   Thumb Code   576  zhihuipc.o(.text)
    pc_goods_set                             0x0002bcad   Thumb Code   168  zhihuipc.o(.text)
    pc_clear_trade                           0x0002bd55   Thumb Code    72  zhihuipc.o(.text)
    pc_ailse_num_set                         0x0002be85   Thumb Code   126  zhihuipc.o(.text)
    .text                                    0x0002cd08   Section        0  ubprotocol.o(.text)
    .text                                    0x000328ac   Section        0  vmc_gprs_pc.o(.text)
    vmc_integ_str                            0x00032b53   Thumb Code    88  vmc_gprs_pc.o(.text)
    .text                                    0x00034874   Section        0  ubprotocol_simple.o(.text)
    .text                                    0x00036178   Section        0  selectkey.o(.text)
    SelectKey_Command                        0x00036179   Thumb Code   308  selectkey.o(.text)
    .text                                    0x00036548   Section        0  taskuart1device.o(.text)
    .text                                    0x0003689c   Section        0  xmt.o(.text)
    .text                                    0x00036bf4   Section        0  hefangui.o(.text)
    .text                                    0x00036f40   Section        0  fs_billchanger.o(.text)
    msleep                                   0x00036f41   Thumb Code    28  fs_billchanger.o(.text)
    FS_getFlow                               0x00036f5d   Thumb Code     6  fs_billchanger.o(.text)
    FS_setFlow                               0x00036f63   Thumb Code    20  fs_billchanger.o(.text)
    FS_getValueByCodeHex                     0x00036f77   Thumb Code    30  fs_billchanger.o(.text)
    FS_getValueByCodeHex2                    0x00036f95   Thumb Code    50  fs_billchanger.o(.text)
    FS_getDataTimeout                        0x00036fc7   Thumb Code   102  fs_billchanger.o(.text)
    FS_setTimer                              0x0003702d   Thumb Code    12  fs_billchanger.o(.text)
    FS_isTimeout                             0x00037039   Thumb Code    16  fs_billchanger.o(.text)
    FS_setTaskTimer                          0x00037049   Thumb Code    12  fs_billchanger.o(.text)
    FS_isTaskTimeout                         0x00037055   Thumb Code    16  fs_billchanger.o(.text)
    FS_setReqTimer                           0x00037065   Thumb Code    20  fs_billchanger.o(.text)
    FS_getReqTimer                           0x00037079   Thumb Code    40  fs_billchanger.o(.text)
    FS_getBillInfoIndex                      0x000370a1   Thumb Code    88  fs_billchanger.o(.text)
    FS_billChannelSort                       0x000370f9   Thumb Code   180  fs_billchanger.o(.text)
    FS_msgInit                               0x000371ad   Thumb Code    44  fs_billchanger.o(.text)
    FS_devInit                               0x000371d9   Thumb Code   120  fs_billchanger.o(.text)
    FS_crc                                   0x00037263   Thumb Code    58  fs_billchanger.o(.text)
    FS_clearUart                             0x0003729d   Thumb Code     8  fs_billchanger.o(.text)
    FS_sendUart                              0x000372a5   Thumb Code    54  fs_billchanger.o(.text)
    FS_sendCmd                               0x000372db   Thumb Code    80  fs_billchanger.o(.text)
    FS_getChar                               0x0003732b   Thumb Code   466  fs_billchanger.o(.text)
    FS_recvCmd                               0x000374fd   Thumb Code    76  fs_billchanger.o(.text)
    FS_sendRequest                           0x0003774f   Thumb Code    72  fs_billchanger.o(.text)
    FS_waitResult                            0x00037797   Thumb Code    64  fs_billchanger.o(.text)
    FS_userSendRequest                       0x000377d7   Thumb Code    92  fs_billchanger.o(.text)
    FS_readStatusPackage                     0x00037833   Thumb Code    42  fs_billchanger.o(.text)
    FS_readStatusRpt                         0x0003785d   Thumb Code   864  fs_billchanger.o(.text)
    FS_billResetReqPackage                   0x00037bf3   Thumb Code   254  fs_billchanger.o(.text)
    FS_distribution                          0x00037fe9   Thumb Code    76  fs_billchanger.o(.text)
    FS_dispenseReset                         0x00038125   Thumb Code    18  fs_billchanger.o(.text)
    .text                                    0x00038384   Section        0  uart2.o(.text)
    .text                                    0x00038760   Section        0  uart0.o(.text)
    .text                                    0x00038930   Section        0  uart1.o(.text)
    .text                                    0x00038b64   Section        0  uart3.o(.text)
    .text                                    0x00038d5c   Section        0  rtc.o(.text)
    .text                                    0x00038e68   Section        0  i2c.o(.text)
    .text                                    0x00039234   Section        0  lcd.o(.text)
    .text                                    0x0003a378   Section        0  key.o(.text)
    .text                                    0x0003a8fc   Section        0  pcoin.o(.text)
    .text                                    0x0003ac04   Section        0  timer.o(.text)
    .text                                    0x0003af48   Section        0  buzzer.o(.text)
    .text                                    0x0003afb8   Section        0  at45db161d.o(.text)
    .text                                    0x0003b354   Section        0  gprs_uart.o(.text)
    .text                                    0x0003b490   Section        0  os_cpu_c.o(.text)
    .text                                    0x0003b580   Section        0  os_core.o(.text)
    OS_InitTaskStat                          0x0003b5f5   Thumb Code    48  os_core.o(.text)
    OS_InitTaskIdle                          0x0003b641   Thumb Code    48  os_core.o(.text)
    OS_InitEventList                         0x0003b671   Thumb Code    44  os_core.o(.text)
    OS_InitTCBList                           0x0003b69d   Thumb Code    64  os_core.o(.text)
    OS_InitRdyList                           0x0003b6dd   Thumb Code    46  os_core.o(.text)
    OS_InitMisc                              0x0003b70b   Thumb Code    44  os_core.o(.text)
    .text                                    0x0003bcc0   Section        0  os_flag.o(.text)
    OS_FlagTaskRdy                           0x0003be31   Thumb Code    90  os_flag.o(.text)
    OS_FlagBlock                             0x0003bf3f   Thumb Code   124  os_flag.o(.text)
    .text                                    0x0003c334   Section        0  os_mbox.o(.text)
    .text                                    0x0003c634   Section        0  os_mem.o(.text)
    .text                                    0x0003c7b4   Section        0  os_time.o(.text)
    .text                                    0x0003c948   Section        0  os_task.o(.text)
    .text                                    0x0003cf44   Section        0  os_sem.o(.text)
    .text                                    0x0003d1cc   Section        0  os_q.o(.text)
    .text                                    0x0003d6b8   Section        0  lpc1700pincfg.o(.text)
    .text                                    0x0003d730   Section        0  target.o(.text)
    .text                                    0x0003d8d4   Section        0  zy_if.o(.text)
    .text                                    0x0003dfb2   Section        0  rt_sys_c.o(.text)
    .text                                    0x0003e038   Section        0  taskuart0device.o(.text)
    pcAnalysisAmount                         0x0003e091   Thumb Code    34  taskuart0device.o(.text)
    pcAmountToRatio                          0x0003e0b3   Thumb Code    34  taskuart0device.o(.text)
    pcAmountFromRatio                        0x0003e0d5   Thumb Code    34  taskuart0device.o(.text)
    pcControlRecv                            0x0003e0f7   Thumb Code   318  taskuart0device.o(.text)
    pcControlSend                            0x0003e235   Thumb Code   260  taskuart0device.o(.text)
    pcShcRecv                                0x0003e339   Thumb Code   222  taskuart0device.o(.text)
    pcShcSend                                0x0003e417   Thumb Code   280  taskuart0device.o(.text)
    pcReply                                  0x0003e52f   Thumb Code    52  taskuart0device.o(.text)
    pcHuodaoOutGoods                         0x0003e57d   Thumb Code    82  taskuart0device.o(.text)
    pcsetKeyNo                               0x0003e5cf   Thumb Code   194  taskuart0device.o(.text)
    pcsendKeyNo                              0x0003e691   Thumb Code   192  taskuart0device.o(.text)
    pcTestAisle                              0x0003e751   Thumb Code    80  taskuart0device.o(.text)
    pcAddGoods                               0x0003e7a1   Thumb Code   234  taskuart0device.o(.text)
    pcONOFFHuodao                            0x0003e88b   Thumb Code   324  taskuart0device.o(.text)
    pcSaveHuodao                             0x0003e9cf   Thumb Code    54  taskuart0device.o(.text)
    pcInitHuoDao                             0x0003ea05   Thumb Code    68  taskuart0device.o(.text)
    pcSetHefanHuodao                         0x0003ea49   Thumb Code   434  taskuart0device.o(.text)
    pcSetHuoDao                              0x0003ebfb   Thumb Code   438  taskuart0device.o(.text)
    pcSendHefanHuoDao                        0x0003edb1   Thumb Code   560  taskuart0device.o(.text)
    pcSendHuoDao                             0x0003efe1   Thumb Code   742  taskuart0device.o(.text)
    pcHuodaoReq                              0x0003f2c7   Thumb Code   180  taskuart0device.o(.text)
    pcSeekUart0                              0x0003f395   Thumb Code   394  taskuart0device.o(.text)
    pcSeekUart3                              0x0003f51f   Thumb Code   406  taskuart0device.o(.text)
    pcHuodaoOutGoodsRpt                      0x0003f6b5   Thumb Code    68  taskuart0device.o(.text)
    pcTestAisleRpt                           0x0003f6f9   Thumb Code    68  taskuart0device.o(.text)
    pcInitHuoDaoRpt                          0x0003f73d   Thumb Code    34  taskuart0device.o(.text)
    pcSeek                                   0x0003f75f   Thumb Code   220  taskuart0device.o(.text)
    pcSendTradeReady                         0x0003f83b   Thumb Code   486  taskuart0device.o(.text)
    pcSendDetailTrade                        0x0003fa21   Thumb Code   798  taskuart0device.o(.text)
    pcTradeReq                               0x0003fd3f   Thumb Code    72  taskuart0device.o(.text)
    pcClearReq                               0x0003fd87   Thumb Code    64  taskuart0device.o(.text)
    pcSendSysPara                            0x0003fdc7   Thumb Code  1124  taskuart0device.o(.text)
    pcSetSysPara                             0x0004022b   Thumb Code   980  taskuart0device.o(.text)
    pcSysParaReq                             0x000405ff   Thumb Code    40  taskuart0device.o(.text)
    pcFactorReq                              0x00040627   Thumb Code    28  taskuart0device.o(.text)
    pcFactorSet                              0x00040643   Thumb Code    28  taskuart0device.o(.text)
    pcIdSetReq                               0x0004065f   Thumb Code    54  taskuart0device.o(.text)
    pcIdReadReq                              0x00040695   Thumb Code    88  taskuart0device.o(.text)
    pcDateTimeReq                            0x000406ed   Thumb Code   634  taskuart0device.o(.text)
    pcStatusReq                              0x00040967   Thumb Code   730  taskuart0device.o(.text)
    pcDebugReq                               0x00040c41   Thumb Code   822  taskuart0device.o(.text)
    vmcPoll                                  0x00040f77   Thumb Code   236  taskuart0device.o(.text)
    .text                                    0x000413ec   Section        0  osinithookbegin.o(.text)
    .text                                    0x000413ee   Section        0  osinithookend.o(.text)
    .text                                    0x000413f0   Section        0  ostaskcreatehook.o(.text)
    .text                                    0x000413f4   Section        0  ostaskdelhook.o(.text)
    .text                                    0x000413f8   Section        0  ostaskidlehook.o(.text)
    .text                                    0x000413fa   Section        0  ostaskstathook.o(.text)
    .text                                    0x000413fc   Section        0  ostaskswhook.o(.text)
    .text                                    0x000413fe   Section        0  ostcbinithook.o(.text)
    .text                                    0x00041402   Section        0  ostimetickhook.o(.text)
    .text                                    0x00041404   Section        2  use_no_semi.o(.text)
    .text                                    0x00041406   Section        0  h1_alloc.o(.text)
    .text                                    0x0004146a   Section        0  h1_free.o(.text)
    .text                                    0x000414b8   Section        0  c89vsprintf.o(.text)
    .text                                    0x000414dc   Section        0  __2sprintf.o(.text)
    .text                                    0x00041508   Section        0  __2snprintf.o(.text)
    .text                                    0x00041540   Section        0  _printf_pad.o(.text)
    .text                                    0x00041590   Section        0  _printf_str.o(.text)
    .text                                    0x000415e4   Section        0  _printf_dec.o(.text)
    .text                                    0x00041658   Section        0  _printf_hex_int_ll_ptr.o(.text)
    _printf_hex_common                       0x00041659   Thumb Code     0  _printf_hex_int_ll_ptr.o(.text)
    .text                                    0x000416f4   Section        0  __printf_flags_ss_wp.o(.text)
    .text                                    0x00041890   Section        0  strncat.o(.text)
    .text                                    0x000418b4   Section        0  strstr.o(.text)
    .text                                    0x000418d8   Section        0  strcpy.o(.text)
    .text                                    0x00041920   Section        0  strlen.o(.text)
    .text                                    0x0004195e   Section        0  strncmp.o(.text)
    .text                                    0x000419ea   Section        0  strcat.o(.text)
    .text                                    0x00041a02   Section      138  rt_memcpy_v6.o(.text)
    .text                                    0x00041a8c   Section      100  rt_memcpy_w.o(.text)
    .text                                    0x00041af0   Section       16  aeabi_memset.o(.text)
    .text                                    0x00041b00   Section       68  rt_memclr.o(.text)
    .text                                    0x00041b44   Section       78  rt_memclr_w.o(.text)
    .text                                    0x00041b92   Section       86  strncpy.o(.text)
    .text                                    0x00041be8   Section        0  mktime.o(.text)
    _tm_carry                                0x00041be9   Thumb Code    54  mktime.o(.text)
    .text                                    0x00041d88   Section       12  rt_heap_descriptor_intlibspace.o(.text)
    .text                                    0x00041d94   Section        0  hguard.o(.text)
    .text                                    0x00041d98   Section        0  init_alloc.o(.text)
    .text                                    0x00041e22   Section        0  h1_init.o(.text)
    .text                                    0x00041e30   Section        0  _printf_truncate.o(.text)
    .text                                    0x00041e54   Section        0  _printf_intcommon.o(.text)
    .text                                    0x00041f08   Section        0  _printf_charcount.o(.text)
    .text                                    0x00041f34   Section        0  _printf_char_common.o(.text)
    _printf_input_char                       0x00041f35   Thumb Code    10  _printf_char_common.o(.text)
    .text                                    0x00041f64   Section        0  _sputc.o(.text)
    .text                                    0x00041f6e   Section        0  _snputc.o(.text)
    .text                                    0x00041f7e   Section        0  _printf_char.o(.text)
    .text                                    0x00041fac   Section        0  _printf_wctomb.o(.text)
    .text                                    0x00042068   Section        0  _printf_longlong_dec.o(.text)
    .text                                    0x000420e0   Section        0  _printf_oct_int_ll.o(.text)
    _printf_longlong_oct_internal            0x000420e1   Thumb Code     0  _printf_oct_int_ll.o(.text)
    .text                                    0x00042158   Section       16  rtudiv10.o(.text)
    .text                                    0x00042168   Section        8  libspace.o(.text)
    .text                                    0x00042170   Section        0  h1_extend.o(.text)
    .text                                    0x000421a2   Section      138  lludiv10.o(.text)
    .text                                    0x0004222c   Section        0  _printf_fp_dec.o(.text)
    _fp_digits                               0x0004222f   Thumb Code   420  _printf_fp_dec.o(.text)
    .text                                    0x0004263a   Section        0  _printf_wchar.o(.text)
    .text                                    0x00042666   Section        0  _wcrtomb.o(.text)
    .text                                    0x000426a6   Section        0  defsig_rtmem_outer.o(.text)
    .text                                    0x000426b4   Section        0  heapauxa.o(.text)
    .text                                    0x00042700   Section       74  sys_stackheap_outer.o(.text)
    .text                                    0x0004274c   Section       16  rt_ctype_table.o(.text)
    .text                                    0x0004275c   Section       12  rt_locale_intlibspace.o(.text)
    .text                                    0x00042768   Section        0  _printf_fp_infnan.o(.text)
    .text                                    0x000427e4   Section        0  bigflt0.o(.text)
    .text                                    0x000428d0   Section        0  exit.o(.text)
    .text                                    0x000428dc   Section        0  defsig_exit.o(.text)
    .text                                    0x000428e8   Section        0  defsig_rtmem_inner.o(.text)
    .text                                    0x00042934   Section        0  defsig_general.o(.text)
    .text                                    0x00042968   Section      128  strcmpv7m.o(.text)
    .text                                    0x000429e8   Section       12  rt_fp_status_addr_intlibspace.o(.text)
    CL$$btod_d2e                             0x000429f4   Section       62  btod.o(CL$$btod_d2e)
    CL$$btod_d2e_denorm_low                  0x00042a32   Section       70  btod.o(CL$$btod_d2e_denorm_low)
    CL$$btod_d2e_norm_op1                    0x00042a78   Section       96  btod.o(CL$$btod_d2e_norm_op1)
    CL$$btod_div_common                      0x00042ad8   Section      824  btod.o(CL$$btod_div_common)
    CL$$btod_e2e                             0x00042e10   Section      198  btod.o(CL$$btod_e2e)
    CL$$btod_ediv                            0x00042ed6   Section       40  btod.o(CL$$btod_ediv)
    CL$$btod_emul                            0x00042efe   Section       40  btod.o(CL$$btod_emul)
    CL$$btod_mult_common                     0x00042f26   Section      580  btod.o(CL$$btod_mult_common)
    i.__ARM_fpclassify                       0x0004316a   Section        0  fpclassify.o(i.__ARM_fpclassify)
    locale$$code                             0x00043194   Section       44  lc_numeric_c.o(locale$$code)
    locale$$code                             0x000431c0   Section       44  lc_ctype_c.o(locale$$code)
    rt_sys                                   0x000431ec   Section        8  rt_sys_s.o(rt_sys)
    x$fpl$fpinit                             0x000431f4   Section       14  fpinit.o(x$fpl$fpinit)
    x$fpl$printf1                            0x00043202   Section        4  printf1.o(x$fpl$printf1)
    x$fpl$usenofp                            0x00043206   Section        0  usenofp.o(x$fpl$usenofp)
    .constdata                               0x00043208   Section       79  business.o(.constdata)
    .constdata                               0x00043258   Section     6544  maintain.o(.constdata)
    .constdata                               0x00044be8   Section       20  common.o(.constdata)
    .constdata                               0x00044bfc   Section     1376  channel.o(.constdata)
    .constdata                               0x0004515c   Section      744  lifttable.o(.constdata)
    .constdata                               0x00045444   Section      416  acdc.o(.constdata)
    .constdata                               0x000455e4   Section      105  pccomapi.o(.constdata)
    .constdata                               0x0004564e   Section      192  channelapi.o(.constdata)
    .constdata                               0x00045710   Section      856  hefanguiapi.o(.constdata)
    hefan_flash_page_th                      0x00045710   Data          20  hefanguiapi.o(.constdata)
    hefan_flash_page_lh                      0x00045724   Data          20  hefanguiapi.o(.constdata)
    .constdata                               0x00045a68   Section       70  taskdevice.o(.constdata)
    .constdata                               0x00045ab0   Section       66  billaccepter.o(.constdata)
    .constdata                               0x00045af4   Section       75  taskuart3device.o(.constdata)
    .constdata                               0x00045b40   Section       84  zhihuipc.o(.constdata)
    .constdata                               0x00045b94   Section      144  ubprotocol.o(.constdata)
    .constdata                               0x00045c24   Section      302  vmc_gprs_pc.o(.constdata)
    .constdata                               0x00045d54   Section      106  fs_billchanger.o(.constdata)
    .constdata                               0x00045dbe   Section    45954  lcd.o(.constdata)
    .constdata                               0x00051140   Section       16  key.o(.constdata)
    .constdata                               0x00051150   Section      264  os_core.o(.constdata)
    .constdata                               0x00051258   Section       40  _printf_hex_int_ll_ptr.o(.constdata)
    uc_hextab                                0x00051258   Data          20  _printf_hex_int_ll_ptr.o(.constdata)
    lc_hextab                                0x0005126c   Data          20  _printf_hex_int_ll_ptr.o(.constdata)
    .constdata                               0x00051280   Section       17  __printf_flags_ss_wp.o(.constdata)
    maptable                                 0x00051280   Data          17  __printf_flags_ss_wp.o(.constdata)
    .constdata                               0x00051294   Section        8  _printf_wctomb.o(.constdata)
    initial_mbstate                          0x00051294   Data           8  _printf_wctomb.o(.constdata)
    .constdata                               0x0005129c   Section       12  _monlen.o(.constdata)
    .constdata                               0x000512a8   Section      148  bigflt0.o(.constdata)
    tenpwrs_x                                0x000512a8   Data          60  bigflt0.o(.constdata)
    tenpwrs_i                                0x000512e4   Data          64  bigflt0.o(.constdata)
    .conststring                             0x0005133c   Section    11575  maintain.o(.conststring)
    .conststring                             0x00054073   Section     3541  language.o(.conststring)
    .conststring                             0x00054e48   Section     2767  channel.o(.conststring)
    .conststring                             0x00055917   Section     1583  lifttable.o(.conststring)
    .conststring                             0x00055f46   Section      508  acdc.o(.conststring)
    .conststring                             0x00056142   Section      862  hefanguiapi.o(.conststring)
    locale$$data                             0x000564e0   Section       28  lc_numeric_c.o(locale$$data)
    __lcnum_c_name                           0x000564e4   Data           2  lc_numeric_c.o(locale$$data)
    __lcnum_c_start                          0x000564ec   Data           0  lc_numeric_c.o(locale$$data)
    __lcnum_c_point                          0x000564f8   Data           0  lc_numeric_c.o(locale$$data)
    __lcnum_c_thousands                      0x000564fa   Data           0  lc_numeric_c.o(locale$$data)
    __lcnum_c_grouping                       0x000564fb   Data           0  lc_numeric_c.o(locale$$data)
    locale$$data                             0x000564fc   Section      272  lc_ctype_c.o(locale$$data)
    __lcnum_c_end                            0x000564fc   Data           0  lc_numeric_c.o(locale$$data)
    __lcctype_c_name                         0x00056500   Data           2  lc_ctype_c.o(locale$$data)
    __lcctype_c_start                        0x00056508   Data           0  lc_ctype_c.o(locale$$data)
    __lcctype_c_end                          0x0005660c   Data           0  lc_ctype_c.o(locale$$data)
    .data                                    0x10000000   Section       17  main.o(.data)
    .data                                    0x10000014   Section       56  business.o(.data)
    readerType                               0x10000044   Data           1  business.o(.data)
    .data                                    0x1000004c   Section       44  maintain.o(.data)
    adminSet                                 0x1000004c   Data           1  maintain.o(.data)
    adminSet                                 0x1000004d   Data           1  maintain.o(.data)
    .data                                    0x10000078   Section      168  common.o(.data)
    .data                                    0x10000120   Section     1392  language.o(.data)
    .data                                    0x10000690   Section        8  lifttable.o(.data)
    .data                                    0x10000698   Section        7  acdc.o(.data)
    curSetTemp                               0x10000698   Data           2  acdc.o(.data)
    tempFlush                                0x1000069a   Data           2  acdc.o(.data)
    chuchouFlush                             0x1000069c   Data           2  acdc.o(.data)
    acdc_init                                0x1000069e   Data           1  acdc.o(.data)
    .data                                    0x1000069f   Section        5  checkdevicestate.o(.data)
    billError                                0x100006a3   Data           1  checkdevicestate.o(.data)
    .data                                    0x100006a4   Section        2  pccomapi.o(.data)
    simple                                   0x100006a4   Data           1  pccomapi.o(.data)
    billError                                0x100006a5   Data           1  pccomapi.o(.data)
    .data                                    0x100006a6   Section        1  lifttableapi.o(.data)
    isReady                                  0x100006a6   Data           1  lifttableapi.o(.data)
    .data                                    0x100006a7   Section        1  changerapi.o(.data)
    .data                                    0x100006a8   Section        2  zhihuiapi.o(.data)
    human                                    0x100006a8   Data           1  zhihuiapi.o(.data)
    doorState                                0x100006a9   Data           1  zhihuiapi.o(.data)
    .data                                    0x100006aa   Section        2  hefanguiapi.o(.data)
    .data                                    0x100006ac   Section        4  colapi.o(.data)
    col_addr                                 0x100006ac   Data           4  colapi.o(.data)
    .data                                    0x100006b0   Section        4  mdb_uart2.o(.data)
    .data                                    0x100006b4   Section       16  evb_uart2.o(.data)
    .data                                    0x100006c4   Section       10  billaccepter.o(.data)
    billrec                                  0x100006c4   Data           1  billaccepter.o(.data)
    RecAble                                  0x100006c5   Data           1  billaccepter.o(.data)
    .data                                    0x100006ce   Section        2  coinaccepter .o(.data)
    payoutFlag                               0x100006cf   Data           1  coinaccepter .o(.data)
    .data                                    0x100006d0   Section        1  acdcdriver.o(.data)
    lSn                                      0x100006d0   Data           1  acdcdriver.o(.data)
    .data                                    0x100006d1   Section        5  channeldriver.o(.data)
    .data                                    0x100006d6   Section        1  hopperdriver.o(.data)
    sn                                       0x100006d6   Data           1  hopperdriver.o(.data)
    .data                                    0x100006d7   Section        3  zhihuipc.o(.data)
    zh_tick                                  0x100006d7   Data           1  zhihuipc.o(.data)
    zh_tick_flag                             0x100006d8   Data           1  zhihuipc.o(.data)
    .data                                    0x100006da   Section        3  ubprotocol.o(.data)
    .data                                    0x100006dd   Section        3  vmc_gprs_pc.o(.data)
    gprs_tick                                0x100006dd   Data           1  vmc_gprs_pc.o(.data)
    gprs_sub_tick                            0x100006de   Data           1  vmc_gprs_pc.o(.data)
    .data                                    0x100006e0   Section        2  ubprotocol_simple.o(.data)
    .data                                    0x100006e2   Section       20  selectkey.o(.data)
    .data                                    0x100006f8   Section       44  fs_billchanger.o(.data)
    flowStatus                               0x100006f8   Data           1  fs_billchanger.o(.data)
    retry                                    0x100006f9   Data           1  fs_billchanger.o(.data)
    userRequest                              0x100006fa   Data           1  fs_billchanger.o(.data)
    ch                                       0x10000708   Data           1  fs_billchanger.o(.data)
    in                                       0x10000709   Data           1  fs_billchanger.o(.data)
    buf                                      0x1000070a   Data           2  fs_billchanger.o(.data)
    ch                                       0x1000070c   Data           1  fs_billchanger.o(.data)
    in                                       0x10000710   Data           4  fs_billchanger.o(.data)
    textLen                                  0x10000714   Data           4  fs_billchanger.o(.data)
    crc                                      0x10000718   Data           2  fs_billchanger.o(.data)
    err                                      0x1000071a   Data           1  fs_billchanger.o(.data)
    request                                  0x1000071b   Data           1  fs_billchanger.o(.data)
    .data                                    0x10000724   Section        5  uart2.o(.data)
    checksum                                 0x10000725   Data           1  uart2.o(.data)
    .data                                    0x10000729   Section        2  uart0.o(.data)
    .data                                    0x1000072b   Section        2  uart1.o(.data)
    .data                                    0x1000072d   Section        2  uart3.o(.data)
    .data                                    0x10000730   Section       22  i2c.o(.data)
    .data                                    0x10000748   Section       13  key.o(.data)
    .data                                    0x10000758   Section       24  pcoin.o(.data)
    PreChannel                               0x1000075b   Data           1  pcoin.o(.data)
    PreStatus                                0x1000075c   Data           1  pcoin.o(.data)
    PreStatus                                0x1000075d   Data           1  pcoin.o(.data)
    .data                                    0x10000770   Section        1  timer.o(.data)
    .data                                    0x10000774   Section        4  gprs_uart.o(.data)
    .data                                    0x10000778   Section        4  os_cpu_c.o(.data)
    .data                                    0x1000077c   Section       76  os_core.o(.data)
    .data                                    0x100007c8   Section       36  taskuart0device.o(.data)
    mainTrace                                0x100007c8   Data           1  taskuart0device.o(.data)
    snNo                                     0x100007c9   Data           1  taskuart0device.o(.data)
    comErr                                   0x100007ca   Data           1  taskuart0device.o(.data)
    shcSN                                    0x100007cb   Data           1  taskuart0device.o(.data)
    busyFlag                                 0x100007cc   Data           1  taskuart0device.o(.data)
    pcm_index                                0x100007cd   Data           1  taskuart0device.o(.data)
    cur_head                                 0x100007ce   Data           1  taskuart0device.o(.data)
    cur_port                                 0x100007cf   Data           1  taskuart0device.o(.data)
    .data                                    0x100007ec   Section        4  heapauxa.o(.data)
    __rt_heap_escrow_base                    0x100007ec   Data           4  heapauxa.o(.data)
    .bss                                     0x100007f0   Section    16380  main.o(.bss)
    MainTaskStk                              0x10000bec   Data        8192  main.o(.bss)
    Uart2DeviceTaskStk                       0x10002bec   Data        2048  main.o(.bss)
    Uart3DeviceTaskStk                       0x100033ec   Data        4096  main.o(.bss)
    Uart1DeviceTaskStk                       0x100043ec   Data        1024  main.o(.bss)
    .bss                                     0x100047ec   Section     1576  common.o(.bss)
    .bss                                     0x10004e14   Section       20  logapi.o(.bss)
    .bss                                     0x10004e28   Section      324  channelapi.o(.bss)
    .bss                                     0x10004f6c   Section       52  gprsapi.o(.bss)
    .bss                                     0x10004fa0   Section       64  billaccepter.o(.bss)
    .bss                                     0x10004fe0   Section       74  coinaccepter .o(.bss)
    .bss                                     0x1000502a   Section      156  lifttabledriver.o(.bss)
    .bss                                     0x100050c8   Section       60  hopperdriver.o(.bss)
    .bss                                     0x10005104   Section       10  vmc_gprs_pc.o(.bss)
    .bss                                     0x1000510e   Section       33  selectkey.o(.bss)
    .bss                                     0x10005130   Section      312  xmt.o(.bss)
    .bss                                     0x10005268   Section      128  hefangui.o(.bss)
    .bss                                     0x100052e8   Section       36  uart2.o(.bss)
    .bss                                     0x1000530c   Section      128  uart0.o(.bss)
    .bss                                     0x1000538c   Section      256  uart3.o(.bss)
    .bss                                     0x1000548c   Section       12  key.o(.bss)
    .bss                                     0x10005498   Section      132  pcoin.o(.bss)
    .bss                                     0x1000551c   Section     5304  os_core.o(.bss)
    .bss                                     0x100069d4   Section       20  taskuart0device.o(.bss)
    .bss                                     0x100069e8   Section       96  libspace.o(.bss)
    RAM2                                     0x2007c000   Section        6  colapi.o(RAM2)
    recvlen                                  0x2007c000   Data           1  colapi.o(RAM2)
    ctrl                                     0x2007c001   Data           5  colapi.o(RAM2)
    RAM2                                     0x2007c008   Section      216  common.o(RAM2)
    RAM2                                     0x2007c0e0   Section     3264  channelapi.o(RAM2)
    RAM2                                     0x2007cda0   Section      728  zhihuiapi.o(RAM2)
    RAM2                                     0x2007d078   Section     5300  hefanguiapi.o(RAM2)
    RAM2                                     0x2007e52c   Section      136  colapi.o(RAM2)
    recvbuf                                  0x2007e52c   Data          36  colapi.o(RAM2)
    RAM2                                     0x2007e5b4   Section     1680  ubprotocol.o(RAM2)
    RAM2                                     0x2007ec44   Section     1036  ubprotocol_simple.o(RAM2)
    RAM2                                     0x2007f050   Section     1160  fs_billchanger.o(RAM2)
    RAM2                                     0x2007f4d8   Section      256  uart1.o(RAM2)
    RAM2                                     0x2007f5d8   Section     5764  taskuart0device.o(RAM2)
    pcControlTaskStk                         0x2007f5d8   Data        4096  taskuart0device.o(RAM2)
    SystemDatasBroadcastStk                  0x2008085c   Data        1024  taskuart0device.o(RAM2)
    Heap                                     0x20080c5c   Section        0  rt_sys_s.o(Heap)
    bottom_of_heap                           0x20080c5c   Data           0  rt_sys_s.o(Heap)

    Global Symbols

    Symbol Name                              Value     Ov Type        Size  Object(Section)

    BuildAttributes$$THM_ISAv4$P$D$K$B$S$PE$A:L22UL41UL21$X:L11$S22US41US21$IEEE1$IW$USESV6$~STKCKD$USESV7$~SHL$OTIME$ROPI$IEEEJ$EBA8$UX$STANDARDLIB$REQ8$PRES8$EABIv2 0x00000000   Number         0  anon$$obj.o ABSOLUTE
    __ARM_use_no_argv                        0x00000000   Number         0  main.o ABSOLUTE
    __GpvVectorTable                         0x00000000   Data         204  vector_table.o(.constdata)
    _printf_flags                            0x00000000   Number         0  printf_stubs.o ABSOLUTE
    _printf_return_value                     0x00000000   Number         0  printf_stubs.o ABSOLUTE
    _printf_sizespec                         0x00000000   Number         0  printf_stubs.o ABSOLUTE
    _printf_widthprec                        0x00000000   Number         0  printf_stubs.o ABSOLUTE
    __ARM_exceptions_init                     - Undefined Weak Reference
    __alloca_initialize                       - Undefined Weak Reference
    __cpp_initialize__aeabi_                  - Undefined Weak Reference
    __cxa_finalize                            - Undefined Weak Reference
    __sigvec_lookup                           - Undefined Weak Reference
    __user_heap_extent                        - Undefined Weak Reference
    _atexit_init                              - Undefined Weak Reference
    _call_atexit_fns                          - Undefined Weak Reference
    _clock_init                               - Undefined Weak Reference
    _fp_trap_init                             - Undefined Weak Reference
    _fp_trap_shutdown                         - Undefined Weak Reference
    _get_lc_collate                           - Undefined Weak Reference
    _get_lc_monetary                          - Undefined Weak Reference
    _get_lc_time                              - Undefined Weak Reference
    _getenv_init                              - Undefined Weak Reference
    _handle_redirection                       - Undefined Weak Reference
    _initio                                   - Undefined Weak Reference
    _mutex_acquire                            - Undefined Weak Reference
    _mutex_free                               - Undefined Weak Reference
    _mutex_release                            - Undefined Weak Reference
    _printf_fp_hex                            - Undefined Weak Reference
    _printf_mbtowc                            - Undefined Weak Reference
    _printf_wc                                - Undefined Weak Reference
    _rand_init                                - Undefined Weak Reference
    _signal_finish                            - Undefined Weak Reference
    _signal_init                              - Undefined Weak Reference
    _terminateio                              - Undefined Weak Reference
    __main                                   0x000000cd   Thumb Code     8  __main.o(!!!main)
    __scatterload                            0x000000d5   Thumb Code     0  __scatter.o(!!!scatter)
    __scatterload_rt2                        0x000000d5   Thumb Code    44  __scatter.o(!!!scatter)
    __scatterload_rt2_thumb_only             0x000000d5   Thumb Code     0  __scatter.o(!!!scatter)
    __scatterload_null                       0x000000e3   Thumb Code     0  __scatter.o(!!!scatter)
    __decompress                             0x00000109   Thumb Code   100  __dclz77c.o(!!dclz77c)
    __decompress2                            0x00000109   Thumb Code     0  __dclz77c.o(!!dclz77c)
    __scatterload_copy                       0x0000016d   Thumb Code    26  __scatter_copy.o(!!handler_copy)
    __scatterload_zeroinit                   0x00000189   Thumb Code    28  __scatter_zi.o(!!handler_zi)
    _printf_n                                0x000001a5   Thumb Code     0  _printf_n.o(.ARM.Collect$$_printf_percent$$00000001)
    _printf_percent                          0x000001a5   Thumb Code     0  _printf_percent.o(.ARM.Collect$$_printf_percent$$00000000)
    _printf_p                                0x000001ab   Thumb Code     0  _printf_p.o(.ARM.Collect$$_printf_percent$$00000002)
    _printf_f                                0x000001b1   Thumb Code     0  _printf_f.o(.ARM.Collect$$_printf_percent$$00000003)
    _printf_e                                0x000001b7   Thumb Code     0  _printf_e.o(.ARM.Collect$$_printf_percent$$00000004)
    _printf_g                                0x000001bd   Thumb Code     0  _printf_g.o(.ARM.Collect$$_printf_percent$$00000005)
    _printf_a                                0x000001c3   Thumb Code     0  _printf_a.o(.ARM.Collect$$_printf_percent$$00000006)
    _printf_ll                               0x000001c9   Thumb Code     0  _printf_ll.o(.ARM.Collect$$_printf_percent$$00000007)
    _printf_i                                0x000001d3   Thumb Code     0  _printf_i.o(.ARM.Collect$$_printf_percent$$00000008)
    _printf_d                                0x000001d9   Thumb Code     0  _printf_d.o(.ARM.Collect$$_printf_percent$$00000009)
    _printf_u                                0x000001df   Thumb Code     0  _printf_u.o(.ARM.Collect$$_printf_percent$$0000000A)
    _printf_o                                0x000001e5   Thumb Code     0  _printf_o.o(.ARM.Collect$$_printf_percent$$0000000B)
    _printf_x                                0x000001eb   Thumb Code     0  _printf_x.o(.ARM.Collect$$_printf_percent$$0000000C)
    _printf_lli                              0x000001f1   Thumb Code     0  _printf_lli.o(.ARM.Collect$$_printf_percent$$0000000D)
    _printf_lld                              0x000001f7   Thumb Code     0  _printf_lld.o(.ARM.Collect$$_printf_percent$$0000000E)
    _printf_llu                              0x000001fd   Thumb Code     0  _printf_llu.o(.ARM.Collect$$_printf_percent$$0000000F)
    _printf_llo                              0x00000203   Thumb Code     0  _printf_llo.o(.ARM.Collect$$_printf_percent$$00000010)
    _printf_llx                              0x00000209   Thumb Code     0  _printf_llx.o(.ARM.Collect$$_printf_percent$$00000011)
    _printf_l                                0x0000020f   Thumb Code     0  _printf_l.o(.ARM.Collect$$_printf_percent$$00000012)
    _printf_c                                0x00000219   Thumb Code     0  _printf_c.o(.ARM.Collect$$_printf_percent$$00000013)
    _printf_s                                0x0000021f   Thumb Code     0  _printf_s.o(.ARM.Collect$$_printf_percent$$00000014)
    _printf_lc                               0x00000225   Thumb Code     0  _printf_lc.o(.ARM.Collect$$_printf_percent$$00000015)
    _printf_ls                               0x0000022b   Thumb Code     0  _printf_ls.o(.ARM.Collect$$_printf_percent$$00000016)
    _printf_percent_end                      0x00000231   Thumb Code     0  _printf_percent_end.o(.ARM.Collect$$_printf_percent$$00000017)
    __rt_lib_init                            0x00000235   Thumb Code     0  libinit.o(.ARM.Collect$$libinit$$00000000)
    __rt_lib_init_heap_2                     0x0000023b   Thumb Code     0  libinit2.o(.ARM.Collect$$libinit$$00000001)
    __rt_lib_init_heap_1                     0x00000243   Thumb Code     0  libinit2.o(.ARM.Collect$$libinit$$00000006)
    __rt_lib_init_lc_common                  0x00000243   Thumb Code     0  libinit2.o(.ARM.Collect$$libinit$$0000000B)
    __rt_lib_init_rand_1                     0x00000243   Thumb Code     0  libinit2.o(.ARM.Collect$$libinit$$0000000A)
    __rt_lib_init_user_alloc_1               0x00000243   Thumb Code     0  libinit2.o(.ARM.Collect$$libinit$$00000008)
    __rt_lib_init_lc_collate_1               0x00000249   Thumb Code     0  libinit2.o(.ARM.Collect$$libinit$$0000000D)
    __rt_lib_init_lc_ctype_2                 0x00000249   Thumb Code     0  libinit2.o(.ARM.Collect$$libinit$$0000000E)
    __rt_lib_init_lc_ctype_1                 0x00000255   Thumb Code     0  libinit2.o(.ARM.Collect$$libinit$$0000000F)
    __rt_lib_init_lc_monetary_1              0x00000255   Thumb Code     0  libinit2.o(.ARM.Collect$$libinit$$00000011)
    __rt_lib_init_lc_numeric_2               0x00000255   Thumb Code     0  libinit2.o(.ARM.Collect$$libinit$$00000012)
    __rt_lib_init_alloca_1                   0x0000025f   Thumb Code     0  libinit2.o(.ARM.Collect$$libinit$$0000002A)
    __rt_lib_init_argv_1                     0x0000025f   Thumb Code     0  libinit2.o(.ARM.Collect$$libinit$$00000028)
    __rt_lib_init_atexit_1                   0x0000025f   Thumb Code     0  libinit2.o(.ARM.Collect$$libinit$$00000017)
    __rt_lib_init_clock_1                    0x0000025f   Thumb Code     0  libinit2.o(.ARM.Collect$$libinit$$0000001D)
    __rt_lib_init_cpp_1                      0x0000025f   Thumb Code     0  libinit2.o(.ARM.Collect$$libinit$$0000002E)
    __rt_lib_init_exceptions_1               0x0000025f   Thumb Code     0  libinit2.o(.ARM.Collect$$libinit$$0000002C)
    __rt_lib_init_fp_trap_1                  0x0000025f   Thumb Code     0  libinit2.o(.ARM.Collect$$libinit$$0000001B)
    __rt_lib_init_getenv_1                   0x0000025f   Thumb Code     0  libinit2.o(.ARM.Collect$$libinit$$0000001F)
    __rt_lib_init_lc_numeric_1               0x0000025f   Thumb Code     0  libinit2.o(.ARM.Collect$$libinit$$00000013)
    __rt_lib_init_lc_time_1                  0x0000025f   Thumb Code     0  libinit2.o(.ARM.Collect$$libinit$$00000015)
    __rt_lib_init_return                     0x0000025f   Thumb Code     0  libinit2.o(.ARM.Collect$$libinit$$0000002F)
    __rt_lib_init_signal_1                   0x0000025f   Thumb Code     0  libinit2.o(.ARM.Collect$$libinit$$00000019)
    __rt_lib_init_stdio_1                    0x0000025f   Thumb Code     0  libinit2.o(.ARM.Collect$$libinit$$00000021)
    __rt_lib_shutdown                        0x00000261   Thumb Code     0  libshutdown.o(.ARM.Collect$$libshutdown$$00000000)
    __rt_lib_shutdown_fp_trap_1              0x00000263   Thumb Code     0  libshutdown2.o(.ARM.Collect$$libshutdown$$00000006)
    __rt_lib_shutdown_heap_1                 0x00000263   Thumb Code     0  libshutdown2.o(.ARM.Collect$$libshutdown$$0000000E)
    __rt_lib_shutdown_return                 0x00000263   Thumb Code     0  libshutdown2.o(.ARM.Collect$$libshutdown$$0000000F)
    __rt_lib_shutdown_signal_1               0x00000263   Thumb Code     0  libshutdown2.o(.ARM.Collect$$libshutdown$$00000009)
    __rt_lib_shutdown_stdio_1                0x00000263   Thumb Code     0  libshutdown2.o(.ARM.Collect$$libshutdown$$00000003)
    __rt_lib_shutdown_user_alloc_1           0x00000263   Thumb Code     0  libshutdown2.o(.ARM.Collect$$libshutdown$$0000000B)
    __rt_entry                               0x00000265   Thumb Code     0  rtentry.o(.ARM.Collect$$rtentry$$00000000)
    __rt_entry_presh_1                       0x00000265   Thumb Code     0  rtentry2.o(.ARM.Collect$$rtentry$$00000002)
    __rt_entry_sh                            0x00000265   Thumb Code     0  rtentry4.o(.ARM.Collect$$rtentry$$00000004)
    __rt_entry_li                            0x0000026b   Thumb Code     0  rtentry2.o(.ARM.Collect$$rtentry$$0000000A)
    __rt_entry_postsh_1                      0x0000026b   Thumb Code     0  rtentry2.o(.ARM.Collect$$rtentry$$00000009)
    __rt_entry_main                          0x0000026f   Thumb Code     0  rtentry2.o(.ARM.Collect$$rtentry$$0000000D)
    __rt_entry_postli_1                      0x0000026f   Thumb Code     0  rtentry2.o(.ARM.Collect$$rtentry$$0000000C)
    __rt_exit                                0x00000277   Thumb Code     0  rtexit.o(.ARM.Collect$$rtexit$$00000000)
    __rt_exit_ls                             0x00000279   Thumb Code     0  rtexit2.o(.ARM.Collect$$rtexit$$00000003)
    __rt_exit_prels_1                        0x00000279   Thumb Code     0  rtexit2.o(.ARM.Collect$$rtexit$$00000002)
    __rt_exit_exit                           0x0000027d   Thumb Code     0  rtexit2.o(.ARM.Collect$$rtexit$$00000004)
    svcallHandle                             0x00000285   Thumb Code    36  os_cpu_c.o(.emb_text)
    __OSStartHighRdy                         0x000002a9   Thumb Code    10  os_cpu_c.o(.emb_text)
    __s_OSStartHighRdy                       0x000002b3   Thumb Code    42  os_cpu_c.o(.emb_text)
    __s_OSCtxSw                              0x000002ed   Thumb Code    80  os_cpu_c.o(.emb_text)
    __s_OS_ENTER_CRITICAL                    0x00000351   Thumb Code    28  os_cpu_c.o(.emb_text)
    __s_OS_EXIT_CRITICAL                     0x00000371   Thumb Code    28  os_cpu_c.o(.emb_text)
    __s_changeToSYSMode                      0x00000391   Thumb Code    10  os_cpu_c.o(.emb_text)
    changeToUSRMode                          0x0000039b   Thumb Code    10  os_cpu_c.o(.emb_text)
    taskEntry                                0x000003a5   Thumb Code    10  os_cpu_c.o(.emb_text)
    DispVersionText                          0x000003b1   Thumb Code    36  main.o(.text)
    _maybe_terminate_alloc                   0x000003b1   Thumb Code     0  maybetermalloc1.o(.emb_text)
    MainTask                                 0x000003d5   Thumb Code   242  main.o(.text)
    main                                     0x000004c7   Thumb Code    58  main.o(.text)
    DispBusinessText                         0x00000541   Thumb Code   132  business.o(.text)
    CLrBusinessText                          0x000005c5   Thumb Code    24  business.o(.text)
    DispFreePage                             0x000005dd   Thumb Code   638  business.o(.text)
    DispErrPage                              0x0000085b   Thumb Code   456  business.o(.text)
    GetColumnNum                             0x00000a23   Thumb Code   132  business.o(.text)
    GetHefangNum                             0x00000aa7   Thumb Code    52  business.o(.text)
    DispChaxunFreePage                       0x00000adb   Thumb Code    58  business.o(.text)
    ClearDealPar                             0x00000b15   Thumb Code    40  business.o(.text)
    GetAmountMoney                           0x00000b3d   Thumb Code    24  business.o(.text)
    DispChaxunPage                           0x00000b55   Thumb Code  2312  business.o(.text)
    DispChaxunHefangPage                     0x0000145d   Thumb Code  2086  business.o(.text)
    DispSalePage                             0x00001c83   Thumb Code   766  business.o(.text)
    DispOverAmountPage                       0x00001f81   Thumb Code    72  business.o(.text)
    DispCannotBuyPage                        0x00001fc9   Thumb Code   200  business.o(.text)
    DispCannotBuyAsPayoutPage                0x00002091   Thumb Code    82  business.o(.text)
    DispReaderDevVendoutRPT                  0x000020e3   Thumb Code    80  business.o(.text)
    DispReaderVendoutFail                    0x00002133   Thumb Code    82  business.o(.text)
    DispChuhuoPage                           0x00002185   Thumb Code   108  business.o(.text)
    DispChuhuoPagePC                         0x000021f1   Thumb Code    80  business.o(.text)
    DispQuhuoPage                            0x00002241   Thumb Code    80  business.o(.text)
    DispChhuoFailPage                        0x00002291   Thumb Code    82  business.o(.text)
    DispPayoutPage                           0x000022e3   Thumb Code    96  business.o(.text)
    DispQuChangePage                         0x00002343   Thumb Code    78  business.o(.text)
    DispIOUPage                              0x00002391   Thumb Code   202  business.o(.text)
    DispEndPage                              0x0000245b   Thumb Code    96  business.o(.text)
    GetReaderAmount                          0x000024bb   Thumb Code     6  business.o(.text)
    BillCoinCtr                              0x000024c1   Thumb Code   168  business.o(.text)
    UpdateErrBill                            0x00002569   Thumb Code    72  business.o(.text)
    rstTime                                  0x000025b1   Thumb Code    22  business.o(.text)
    BillCoinEnable                           0x000025c7   Thumb Code   180  business.o(.text)
    UnpdateTubeMoney                         0x0000267b   Thumb Code   730  business.o(.text)
    SaleTimeSet                              0x00002955   Thumb Code    60  business.o(.text)
    GetMoney                                 0x00002991   Thumb Code   518  business.o(.text)
    ChangerRecycler                          0x00002b97   Thumb Code   628  business.o(.text)
    ChangerMoney                             0x00002e0b   Thumb Code   340  business.o(.text)
    IsCanSale                                0x00002f5f   Thumb Code   680  business.o(.text)
    SaleCostMoney                            0x00003207   Thumb Code    86  business.o(.text)
    IsSaleTimeOver                           0x0000325d   Thumb Code    28  business.o(.text)
    DispSaleTime                             0x00003279   Thumb Code    44  business.o(.text)
    StackMoneyInd                            0x000032a5   Thumb Code   310  business.o(.text)
    CostReaderRPT                            0x000033db   Thumb Code    36  business.o(.text)
    CostMoneyInd                             0x000033ff   Thumb Code   360  business.o(.text)
    VendoutInd                               0x00003567   Thumb Code  1034  business.o(.text)
    VendoutIndFail                           0x00003971   Thumb Code   118  business.o(.text)
    ResetInd                                 0x000039e7   Thumb Code   226  business.o(.text)
    TuiMoneyInd                              0x00003ac9   Thumb Code   168  business.o(.text)
    VendoutSIMPLEInd                         0x00003b71   Thumb Code   226  business.o(.text)
    GetmoneySIMPLEInd                        0x00003c53   Thumb Code   180  business.o(.text)
    PriceSIMPLEInd                           0x00003d07   Thumb Code   382  business.o(.text)
    TxtSIMPLEInd                             0x00003e85   Thumb Code   154  business.o(.text)
    BusinessProcess                          0x00003f1f   Thumb Code  2710  business.o(.text)
    PasswordCheck                            0x000049d9   Thumb Code   400  maintain.o(.text)
    SelectOKCheck                            0x00004b69   Thumb Code   188  maintain.o(.text)
    TubeMoneyEnough                          0x00004c25   Thumb Code   330  maintain.o(.text)
    PCError                                  0x00004d6f   Thumb Code    68  maintain.o(.text)
    ErrorState                               0x00004db3   Thumb Code   172  maintain.o(.text)
    ErrorCheck                               0x00004e5f   Thumb Code  4572  maintain.o(.text)
    LogTransaction                           0x0000603b   Thumb Code  1798  maintain.o(.text)
    LogTransactionTotal                      0x00006741   Thumb Code  1674  maintain.o(.text)
    LogClearRecord                           0x00006dcb   Thumb Code    42  maintain.o(.text)
    LogRecordDetail                          0x00006df5   Thumb Code    70  maintain.o(.text)
    LogMaintainProcess                       0x00006e3b   Thumb Code   496  maintain.o(.text)
    AdminRPT                                 0x0000702b   Thumb Code   152  maintain.o(.text)
    AdminRPTWeihu                            0x000070c3   Thumb Code   182  maintain.o(.text)
    AdminRPTSIMPLE                           0x00007179   Thumb Code   176  maintain.o(.text)
    PCProcess                                0x00007229   Thumb Code   384  maintain.o(.text)
    RTCParaMenu                              0x000073a9   Thumb Code  1182  maintain.o(.text)
    ChooseSet                                0x00007847   Thumb Code   100  maintain.o(.text)
    RstUserPara                              0x000078ab   Thumb Code   214  maintain.o(.text)
    GetTubeMoney                             0x00007981   Thumb Code   220  maintain.o(.text)
    TestChanger                              0x00007a5d   Thumb Code  2922  maintain.o(.text)
    TestCoinAcceptor                         0x000085c7   Thumb Code   748  maintain.o(.text)
    TestBillValidator                        0x000088b3   Thumb Code  1092  maintain.o(.text)
    UserTradeMaintainProcess                 0x00008cf7   Thumb Code  4468  maintain.o(.text)
    RstTracePara                             0x00009e6b   Thumb Code   288  maintain.o(.text)
    TraceMaintainProcess                     0x00009f8b   Thumb Code  2002  maintain.o(.text)
    IsAdminSet                               0x0000a75d   Thumb Code   366  maintain.o(.text)
    IsFactorySet                             0x0000a8cb   Thumb Code   294  maintain.o(.text)
    TestTuibi                                0x0000a9f1   Thumb Code    56  maintain.o(.text)
    TestATC                                  0x0000aa29   Thumb Code    52  maintain.o(.text)
    TestSelectKey                            0x0000aa5d   Thumb Code    98  maintain.o(.text)
    TestKeyBoard                             0x0000aabf   Thumb Code    52  maintain.o(.text)
    TestCashless                             0x0000aaf3   Thumb Code   876  maintain.o(.text)
    EnterSelfCheckFuction                    0x0000ae5f   Thumb Code  1448  maintain.o(.text)
    FactorySetting                           0x0000b407   Thumb Code    38  maintain.o(.text)
    RstSystemPara                            0x0000b42d   Thumb Code   762  maintain.o(.text)
    DefaultSystemParaMenu                    0x0000b727   Thumb Code  5838  maintain.o(.text)
    RstFactorySetting                        0x0000cdf5   Thumb Code    38  maintain.o(.text)
    MaintainProcess                          0x0000ce1b   Thumb Code  2144  maintain.o(.text)
    MaintainUserProcess                      0x0000d67b   Thumb Code   720  maintain.o(.text)
    EnterVendingSetFuction                   0x0000d94b   Thumb Code    68  maintain.o(.text)
    TestGoodsChannel                         0x0000d98f   Thumb Code    52  maintain.o(.text)
    CreateMBox                               0x0000da35   Thumb Code   400  common.o(.text)
    CrcCheck                                 0x0000dbc5   Thumb Code    70  common.o(.text)
    LoadMechineSerialNo                      0x0000dc0b   Thumb Code    56  common.o(.text)
    WriteUserSystemPara                      0x0000dc43   Thumb Code  1094  common.o(.text)
    WriteDefaultSystemPara                   0x0000e089   Thumb Code  2616  common.o(.text)
    LoadUserSystemPara                       0x0000eac1   Thumb Code  1114  common.o(.text)
    LoadDefaultSystemPara                    0x0000ef1b   Thumb Code  2658  common.o(.text)
    FactoryDefaultSystemPara                 0x0000f97d   Thumb Code   186  common.o(.text)
    RstFactoryDefaultSystemPara              0x0000fa37   Thumb Code   128  common.o(.text)
    ResetSystemPara                          0x0000fab7   Thumb Code   216  common.o(.text)
    XorCheck                                 0x0000fb8f   Thumb Code    26  common.o(.text)
    PrintfMoney                              0x0000fba9   Thumb Code   104  common.o(.text)
    ChannelBinStr                            0x0000fc55   Thumb Code    36  channel.o(.text)
    ChannelStateLookUp                       0x0000fc79   Thumb Code  1312  channel.o(.text)
    ChannelAPIProcess                        0x00010199   Thumb Code   556  channel.o(.text)
    ChannelKaojiReadFlash                    0x000103c5   Thumb Code   118  channel.o(.text)
    ChannelKaojiWriteFlash                   0x0001043b   Thumb Code   198  channel.o(.text)
    ChannelKaojiClear                        0x00010501   Thumb Code    34  channel.o(.text)
    ChannelKaojiCheckPage                    0x00010523   Thumb Code   924  channel.o(.text)
    ChannelKaojiNotEmpty                     0x000108bf   Thumb Code    28  channel.o(.text)
    ChannelKaojiAddLog                       0x000108db   Thumb Code   504  channel.o(.text)
    ChannelOneTestPage                       0x00010ad3   Thumb Code   482  channel.o(.text)
    ChannelSomeTest                          0x00010cb5   Thumb Code    84  channel.o(.text)
    ChannelSomeColumnTest                    0x00010d09   Thumb Code   522  channel.o(.text)
    ChannelSomeRowTest                       0x00010f13   Thumb Code   562  channel.o(.text)
    ChannelAllColumnTest                     0x00011145   Thumb Code   140  channel.o(.text)
    ChannelTest                              0x000111d1   Thumb Code   392  channel.o(.text)
    nPrintf                                  0x00011359   Thumb Code    26  channel.o(.text)
    ChannelReadChannelParam                  0x00011373   Thumb Code  2056  channel.o(.text)
    ChannelParamSet                          0x00011b7b   Thumb Code   398  channel.o(.text)
    ChannelLookUpSuccessCount                0x00011d09   Thumb Code   812  channel.o(.text)
    ChannelClearSuccesCount                  0x00012035   Thumb Code   154  channel.o(.text)
    hd_enterNumber                           0x000120cf   Thumb Code   366  channel.o(.text)
    ChannelOneAddGoods                       0x0001223d   Thumb Code   816  channel.o(.text)
    ChannelLevelAddGoods                     0x0001256d   Thumb Code   478  channel.o(.text)
    ChannelAllLevelAddGoods                  0x0001274b   Thumb Code   234  channel.o(.text)
    ChannelAddGoods                          0x00012835   Thumb Code   308  channel.o(.text)
    ChannelManage                            0x00012969   Thumb Code   846  channel.o(.text)
    nt_huodao_rest                           0x00012cb7   Thumb Code   342  channel.o(.text)
    nt_huodao_level_managment                0x00012e0d   Thumb Code   656  channel.o(.text)
    nt_huodao_set_page                       0x0001309d   Thumb Code  1208  channel.o(.text)
    ChannelAttributeManage                   0x00013555   Thumb Code   572  channel.o(.text)
    ChannelCheckCountOrPrice                 0x00013791   Thumb Code    84  channel.o(.text)
    ChannelGetMaxGoodsPrice                  0x000137e5   Thumb Code   280  channel.o(.text)
    TestColumnByPC                           0x000138fd   Thumb Code   128  channel.o(.text)
    ColumnTestByPcPost                       0x0001397d   Thumb Code   126  channel.o(.text)
    ColumnTestByPcPend                       0x000139fb   Thumb Code    38  channel.o(.text)
    lift_vend_handle                         0x00013a21   Thumb Code     6  lifttable.o(.text)
    LiftTable1Process                        0x00013a27   Thumb Code   598  lifttable.o(.text)
    LiftTable2Process                        0x00013c7d   Thumb Code   974  lifttable.o(.text)
    LiftTable3Process                        0x0001404b   Thumb Code   770  lifttable.o(.text)
    LiftTableProcess                         0x0001434d   Thumb Code   126  lifttable.o(.text)
    LiftTableTest                            0x000143cb   Thumb Code  1850  lifttable.o(.text)
    LiftTableTestByPcPost                    0x00014b05   Thumb Code   192  lifttable.o(.text)
    LiftTableTestByPcPend                    0x00014bc5   Thumb Code    88  lifttable.o(.text)
    cabinetSelectPage                        0x00014c35   Thumb Code     4  acdc.o(.text)
    acdc_hotTimerSetPage                     0x00014c39   Thumb Code  1842  acdc.o(.text)
    acdc_hotTimerHandlePage                  0x0001536b   Thumb Code   794  acdc.o(.text)
    acdc_timerHandlePage                     0x00015685   Thumb Code  1396  acdc.o(.text)
    acdc_manage                              0x00015bf9   Thumb Code  1184  acdc.o(.text)
    ACDCManageLight                          0x00016099   Thumb Code    10  acdc.o(.text)
    ACDCManageCompressor                     0x000160a3   Thumb Code    10  acdc.o(.text)
    acdc_controlChuchou                      0x000160ad   Thumb Code    10  acdc.o(.text)
    acdc_controlHot                          0x000160b7   Thumb Code  1502  acdc.o(.text)
    acdc_timerHandle                         0x00016695   Thumb Code   336  acdc.o(.text)
    acdc_chuchouTimerHandle                  0x000167e5   Thumb Code   212  acdc.o(.text)
    acdc_hotTimerHandle                      0x000168b9   Thumb Code   268  acdc.o(.text)
    ACDCTimingHandle                         0x000169c5   Thumb Code   264  acdc.o(.text)
    acdc_handle_API                          0x00016acd   Thumb Code   100  acdcapi.o(.text)
    acdc_cpr_API                             0x00016b31   Thumb Code    54  acdcapi.o(.text)
    acdc_led_API                             0x00016b67   Thumb Code   112  acdcapi.o(.text)
    API_ACDCHandle                           0x00016bd7   Thumb Code   268  acdcapi.o(.text)
    acdc_hot_API                             0x00016ce3   Thumb Code    36  acdcapi.o(.text)
    acdc_getTemp_API                         0x00016d07   Thumb Code    10  acdcapi.o(.text)
    acdc_chuchou_API                         0x00016d11   Thumb Code   120  acdcapi.o(.text)
    acdc_status_API                          0x00016d89   Thumb Code   134  acdcapi.o(.text)
    BillDevInitAPI                           0x00016ed5   Thumb Code    64  billaccepterapi.o(.text)
    GetBillDevMoneyInAPI                     0x00016f15   Thumb Code   132  billaccepterapi.o(.text)
    GetBillDevMoneyUnStackInAPI              0x00016f99   Thumb Code    48  billaccepterapi.o(.text)
    StackedBillDevMoneyInAPI                 0x00016fc9   Thumb Code   112  billaccepterapi.o(.text)
    ReturnBillDevMoneyInAPI                  0x00017039   Thumb Code   106  billaccepterapi.o(.text)
    BillDevDisableAPI                        0x000170a3   Thumb Code    38  billaccepterapi.o(.text)
    BillDevEnableAPI                         0x000170c9   Thumb Code    32  billaccepterapi.o(.text)
    GetBillDevStateAPI                       0x000170e9   Thumb Code     2  billaccepterapi.o(.text)
    BillRecyclerPayoutNumExpanseAPI          0x000170eb   Thumb Code   174  billaccepterapi.o(.text)
    BillRecyclerPayoutValueExpanseAPI        0x00017199   Thumb Code   170  billaccepterapi.o(.text)
    CoinDevInitAPI                           0x00017309   Thumb Code    66  coinaccepterapi .o(.text)
    GetCoinDevMoneyInAPI                     0x0001734b   Thumb Code   146  coinaccepterapi .o(.text)
    CoinDevDisableAPI                        0x000173dd   Thumb Code    54  coinaccepterapi .o(.text)
    CoinDevEnableAPI                         0x00017413   Thumb Code    54  coinaccepterapi .o(.text)
    GetCoinDevStateAPI                       0x00017449   Thumb Code     2  coinaccepterapi .o(.text)
    IsTuibiAPI                               0x000174a5   Thumb Code    82  tuibiapi.o(.text)
    ClrTuibiAPI                              0x000174f7   Thumb Code    42  tuibiapi.o(.text)
    CheckDeviceState                         0x0001753d   Thumb Code   276  checkdevicestate.o(.text)
    SetScaleError                            0x00017651   Thumb Code     6  checkdevicestate.o(.text)
    GetScaleError                            0x00017657   Thumb Code     6  checkdevicestate.o(.text)
    IsErrorState                             0x0001765d   Thumb Code   464  checkdevicestate.o(.text)
    HopperIsEmpty                            0x0001782d   Thumb Code    24  checkdevicestate.o(.text)
    ChangerIsErr                             0x00017845   Thumb Code   104  checkdevicestate.o(.text)
    BillIsErr                                0x000178ad   Thumb Code    60  checkdevicestate.o(.text)
    SetBillCoinStatus                        0x000178e9   Thumb Code   396  checkdevicestate.o(.text)
    GetBillCoinStatus                        0x00017a75   Thumb Code    26  checkdevicestate.o(.text)
    SetWeihuStatus                           0x00017a8f   Thumb Code     6  checkdevicestate.o(.text)
    GetWeihuStatus                           0x00017a95   Thumb Code     6  checkdevicestate.o(.text)
    ErrorStatus                              0x00017a9b   Thumb Code   318  checkdevicestate.o(.text)
    SIMPLEErrorStatus                        0x00017bd9   Thumb Code    72  checkdevicestate.o(.text)
    LogBeginTransAPI                         0x00017c35   Thumb Code    40  logapi.o(.text)
    LogGetMoneyAPI                           0x00017c5d   Thumb Code   126  logapi.o(.text)
    LogTransactionAPI                        0x00017cdb   Thumb Code  1010  logapi.o(.text)
    LogCostAPI                               0x000180cd   Thumb Code    56  logapi.o(.text)
    LogCardIncomeAPI                         0x00018105   Thumb Code    44  logapi.o(.text)
    LogChangeAPI                             0x00018131   Thumb Code    36  logapi.o(.text)
    WriteLogAPI                              0x00018155   Thumb Code    68  logapi.o(.text)
    WriteLogDetailAPI                        0x00018199   Thumb Code   150  logapi.o(.text)
    LogEndTransAPI                           0x0001822f   Thumb Code    84  logapi.o(.text)
    LogClearAPI                              0x00018283   Thumb Code    66  logapi.o(.text)
    LOG_writeId                              0x000182c5   Thumb Code    82  logapi.o(.text)
    LOG_readId                               0x00018317   Thumb Code    88  logapi.o(.text)
    ReadLogAPI                               0x0001836f   Thumb Code    96  logapi.o(.text)
    ReadLogDetailAPI                         0x000183cf   Thumb Code   190  logapi.o(.text)
    ReadDetailTraceAPI                       0x0001848d   Thumb Code    92  logapi.o(.text)
    TraceBill                                0x000184e9   Thumb Code    68  traceapi.o(.text)
    TraceCoin                                0x0001852d   Thumb Code    68  traceapi.o(.text)
    TraceChange                              0x00018571   Thumb Code    68  traceapi.o(.text)
    TraceReader                              0x000185b5   Thumb Code    68  traceapi.o(.text)
    TraceChannel                             0x000185f9   Thumb Code    68  traceapi.o(.text)
    TraceCompress                            0x0001863d   Thumb Code    68  traceapi.o(.text)
    TraceLed                                 0x00018681   Thumb Code    68  traceapi.o(.text)
    TraceSelection                           0x000186c5   Thumb Code    68  traceapi.o(.text)
    TracePC                                  0x00018709   Thumb Code    68  traceapi.o(.text)
    print_fs                                 0x0001874d   Thumb Code    68  traceapi.o(.text)
    UpdateIndex                              0x00018795   Thumb Code    28  pccomapi.o(.text)
    UpdateSIMPLEIndex                        0x000187b1   Thumb Code    28  pccomapi.o(.text)
    ColumnCheckError                         0x000187cd   Thumb Code   166  pccomapi.o(.text)
    CostRPTAPI                               0x00018873   Thumb Code   130  pccomapi.o(.text)
    PayoutRPTAPI                             0x000188f5   Thumb Code   172  pccomapi.o(.text)
    ActionRPTAPI                             0x000189a1   Thumb Code   264  pccomapi.o(.text)
    ChangeMoneyInd                           0x00018aa9   Thumb Code    88  pccomapi.o(.text)
    PollAPI                                  0x00018b01   Thumb Code  2770  pccomapi.o(.text)
    WaitForPCInit                            0x000195d3   Thumb Code   138  pccomapi.o(.text)
    PayinRPTAPI                              0x0001965d   Thumb Code   664  pccomapi.o(.text)
    StatusRPTAPI                             0x000198f5   Thumb Code  1378  pccomapi.o(.text)
    BillStatusRPTAPI                         0x00019e57   Thumb Code    62  pccomapi.o(.text)
    ButtonRPTAPI                             0x00019e95   Thumb Code   196  pccomapi.o(.text)
    VendoutRPTAPI                            0x00019f59   Thumb Code   444  pccomapi.o(.text)
    AdminRPTAPI                              0x0001a115   Thumb Code   320  pccomapi.o(.text)
    AdminRPTSIMPLEAPI                        0x0001a255   Thumb Code   312  pccomapi.o(.text)
    GetAdminSIMPLEAPI                        0x0001a38d   Thumb Code   164  pccomapi.o(.text)
    ButtonSIMPLERPTAPI                       0x0001a431   Thumb Code    86  pccomapi.o(.text)
    PCInitAPI                                0x0001a487   Thumb Code   340  pccomapi.o(.text)
    PCHuamanCloseAPI                         0x0001a5db   Thumb Code     8  pccomapi.o(.text)
    liftSetReady                             0x0001a61d   Thumb Code    14  lifttableapi.o(.text)
    LiftTableHandle                          0x0001a62b   Thumb Code   134  lifttableapi.o(.text)
    LiftTableHandle1                         0x0001a6b1   Thumb Code   120  lifttableapi.o(.text)
    TestLiftTablePost                        0x0001a729   Thumb Code   158  lifttableapi.o(.text)
    TestLiftTablePend                        0x0001a7c7   Thumb Code    68  lifttableapi.o(.text)
    liftIsReady                              0x0001a80b   Thumb Code    16  lifttableapi.o(.text)
    liftTableLight                           0x0001a81b   Thumb Code    58  lifttableapi.o(.text)
    liftTableChuchou                         0x0001a855   Thumb Code    56  lifttableapi.o(.text)
    SelectionKeyMBox                         0x0001a915   Thumb Code    80  selectkeyapi.o(.text)
    FreeSelectionKey                         0x0001a965   Thumb Code    76  selectkeyapi.o(.text)
    FreeSelectionKeyAPI                      0x0001a9b1   Thumb Code    40  selectkeyapi.o(.text)
    FreeSelectionKeyValueAPI                 0x0001a9d9   Thumb Code   574  selectkeyapi.o(.text)
    SaleSelectionKeyAPI                      0x0001ac17   Thumb Code   496  selectkeyapi.o(.text)
    HuodaoSetSelectionKeyAPI                 0x0001ae07   Thumb Code   304  selectkeyapi.o(.text)
    GetSelectKeyAPI                          0x0001af37   Thumb Code    58  selectkeyapi.o(.text)
    SelectInitAPI                            0x0001af71   Thumb Code    50  selectkeyapi.o(.text)
    KeyValueAPI                              0x0001afa3   Thumb Code   182  selectkeyapi.o(.text)
    ReadGameKeyValueAPI                      0x0001b059   Thumb Code    30  selectkeyapi.o(.text)
    SetTemperatureAPI                        0x0001b077   Thumb Code    76  selectkeyapi.o(.text)
    hd_init                                  0x0001b149   Thumb Code   518  channelapi.o(.text)
    hd_logic_init                            0x0001b34f   Thumb Code   270  channelapi.o(.text)
    hd_save_param_bak                        0x0001b45d   Thumb Code   256  channelapi.o(.text)
    hd_save_param                            0x0001b55d   Thumb Code   228  channelapi.o(.text)
    hd_read_param                            0x0001b641   Thumb Code   266  channelapi.o(.text)
    hd_read_param_bak                        0x0001b74b   Thumb Code   266  channelapi.o(.text)
    hd_get_index                             0x0001b855   Thumb Code   266  channelapi.o(.text)
    hd_open_handle                           0x0001b95f   Thumb Code   496  channelapi.o(.text)
    hd_logicNo_by_selectNo                   0x0001bb4f   Thumb Code    96  channelapi.o(.text)
    hd_logicNo_by_id                         0x0001bbaf   Thumb Code   206  channelapi.o(.text)
    hd_logicNo_by_physic                     0x0001bc7d   Thumb Code    96  channelapi.o(.text)
    hd_physicNo_by_logicNo                   0x0001bcdd   Thumb Code    94  channelapi.o(.text)
    hd_set_by_logic                          0x0001bd3b   Thumb Code   426  channelapi.o(.text)
    hd_get_by_logic                          0x0001bee5   Thumb Code   408  channelapi.o(.text)
    hd_set_by_physic                         0x0001c07d   Thumb Code   410  channelapi.o(.text)
    hd_get_by_physic                         0x0001c217   Thumb Code   396  channelapi.o(.text)
    hd_check_ok                              0x0001c3a3   Thumb Code   310  channelapi.o(.text)
    hd_add_goods                             0x0001c4d9   Thumb Code   738  channelapi.o(.text)
    hd_all_check                             0x0001c7bb   Thumb Code   360  channelapi.o(.text)
    hd_set_by_pc                             0x0001c923   Thumb Code  1024  channelapi.o(.text)
    hd_get_next_physicNo                     0x0001cd23   Thumb Code     6  channelapi.o(.text)
    ChannelSendMBox                          0x0001cd29   Thumb Code   222  channelapi.o(.text)
    TestColumnPost                           0x0001ce07   Thumb Code   132  channelapi.o(.text)
    TestColumnPend                           0x0001ce8b   Thumb Code   168  channelapi.o(.text)
    ChannelAPIHandle                         0x0001cf33   Thumb Code   220  channelapi.o(.text)
    ChannelResetinit                         0x0001d00f   Thumb Code    16  channelapi.o(.text)
    ChannelGetFlashData                      0x0001d01f   Thumb Code    20  channelapi.o(.text)
    ChannelSaveParam                         0x0001d033   Thumb Code    20  channelapi.o(.text)
    ChannelExChannge                         0x0001d047   Thumb Code    24  channelapi.o(.text)
    ChannelGetSelectColumn                   0x0001d05f   Thumb Code    32  channelapi.o(.text)
    ChannelGetGocState                       0x0001d07f   Thumb Code     6  channelapi.o(.text)
    ChannelSetParam                          0x0001d085   Thumb Code   122  channelapi.o(.text)
    ChannelGetPhysicNum                      0x0001d0ff   Thumb Code   272  channelapi.o(.text)
    ChannelCheckIsOk                         0x0001d20f   Thumb Code    16  channelapi.o(.text)
    ChannelGetParamValue                     0x0001d21f   Thumb Code    20  channelapi.o(.text)
    ChannelGetAddressLOWandRow               0x0001d233   Thumb Code    66  channelapi.o(.text)
    ChannelGetCloseCount                     0x0001d275   Thumb Code     6  channelapi.o(.text)
    GetLevelOrColumnState                    0x0001d27b   Thumb Code   190  channelapi.o(.text)
    GetColumnStateByPhysic                   0x0001d339   Thumb Code    74  channelapi.o(.text)
    SetColumnParamByPhysic                   0x0001d383   Thumb Code    94  channelapi.o(.text)
    AddColumnGoods                           0x0001d3e1   Thumb Code    20  channelapi.o(.text)
    FromPhysicGetLogicNum                    0x0001d3f5   Thumb Code    16  channelapi.o(.text)
    GetPhysicIndexByRowAndLow                0x0001d405   Thumb Code   184  channelapi.o(.text)
    ChannelGetAllOpenColumn                  0x0001d4bd   Thumb Code   170  channelapi.o(.text)
    pcSetHuodao                              0x0001d567   Thumb Code   520  channelapi.o(.text)
    ChannelGetLevelNum                       0x0001d76f   Thumb Code    38  channelapi.o(.text)
    nt_get_level_state                       0x0001d795   Thumb Code    58  channelapi.o(.text)
    nt_get_huodoa_ON_OFF                     0x0001d7cf   Thumb Code   114  channelapi.o(.text)
    nt_huodao_exsit                          0x0001d841   Thumb Code    24  channelapi.o(.text)
    nt_huodao_exsit_by_physic                0x0001d859   Thumb Code   174  channelapi.o(.text)
    special_cabinet_info                     0x0001d907   Thumb Code   138  channelapi.o(.text)
    ChannelGetPCChange                       0x0001d991   Thumb Code   628  channelapi.o(.text)
    hd_huodao_id_rpt_vp                      0x0001dc05   Thumb Code   140  channelapi.o(.text)
    hd_huodao_rpt_vp                         0x0001dc91   Thumb Code   328  channelapi.o(.text)
    hd_id_by_logic                           0x0001ddd9   Thumb Code   122  channelapi.o(.text)
    hd_nums_by_id                            0x0001de53   Thumb Code   122  channelapi.o(.text)
    hd_state_by_id                           0x0001decd   Thumb Code   152  channelapi.o(.text)
    hd_get_by_id                             0x0001df65   Thumb Code   404  channelapi.o(.text)
    hd_SIMPLEstate_by_id                     0x0001e0f9   Thumb Code    58  channelapi.o(.text)
    hd_setNums_by_id                         0x0001e133   Thumb Code   262  channelapi.o(.text)
    hd_ids_by_level                          0x0001e239   Thumb Code   244  channelapi.o(.text)
    Hopper_ValueListInit                     0x0001e339   Thumb Code   202  changerapi.o(.text)
    ChangeInitHopperState                    0x0001e403   Thumb Code    28  changerapi.o(.text)
    Hopper_Init                              0x0001e41f   Thumb Code   250  changerapi.o(.text)
    Hopper_Distribute                        0x0001e519   Thumb Code   372  changerapi.o(.text)
    Hopper_Dispence                          0x0001e68d   Thumb Code  1188  changerapi.o(.text)
    ChangeGetTubesAPI                        0x0001eb31   Thumb Code   268  changerapi.o(.text)
    MDBMakeChange                            0x0001ec3d   Thumb Code   106  changerapi.o(.text)
    MDBchange                                0x0001eca7   Thumb Code   376  changerapi.o(.text)
    ChangePayoutProcessLevel2API             0x0001ee1f   Thumb Code   292  changerapi.o(.text)
    ChangerDevPayoutAPI                      0x0001ef43   Thumb Code   864  changerapi.o(.text)
    ChangerDevInitAPI                        0x0001f2a3   Thumb Code   104  changerapi.o(.text)
    TestHopperHandle                         0x0001f30b   Thumb Code    68  changerapi.o(.text)
    ReaderDevInitAPI                         0x0001f3f1   Thumb Code    34  readerapi.o(.text)
    GetReaderDevMoneyInAPI                   0x0001f413   Thumb Code    96  readerapi.o(.text)
    ReaderDevDisableAPI                      0x0001f473   Thumb Code    34  readerapi.o(.text)
    ReaderDevEnableAPI                       0x0001f495   Thumb Code    34  readerapi.o(.text)
    ReaderDevVendoutTestAPI                  0x0001f4b7   Thumb Code   346  readerapi.o(.text)
    ReaderDevVendoutRPTAPI                   0x0001f611   Thumb Code   208  readerapi.o(.text)
    ReaderDevVendoutResultAPI                0x0001f6e1   Thumb Code   136  readerapi.o(.text)
    GetReaderDevStateAPI                     0x0001f769   Thumb Code     2  readerapi.o(.text)
    ReaderDevCashSaleAPI                     0x0001f76b   Thumb Code    68  readerapi.o(.text)
    crc_check                                0x0001f8ad   Thumb Code    30  zhihuiapi.o(.text)
    zh_task3_post                            0x0001f8cb   Thumb Code   200  zhihuiapi.o(.text)
    getAisleInfo                             0x0001f993   Thumb Code    18  zhihuiapi.o(.text)
    vmc_check_huodao                         0x0001f9a5   Thumb Code   124  zhihuiapi.o(.text)
    zh_task3_pend                            0x0001fa21   Thumb Code   442  zhihuiapi.o(.text)
    zh_vmc_post                              0x0001fbdb   Thumb Code    26  zhihuiapi.o(.text)
    pollHuman                                0x0001fbf5   Thumb Code    46  zhihuiapi.o(.text)
    pollDoorAPI                              0x0001fc23   Thumb Code    40  zhihuiapi.o(.text)
    setAisleInfo                             0x0001fc4b   Thumb Code    70  zhihuiapi.o(.text)
    vmc_check_no                             0x0001fc91   Thumb Code   332  zhihuiapi.o(.text)
    vmc_logic_to_no                          0x0001fddd   Thumb Code    42  zhihuiapi.o(.text)
    vmc_trade_info_write                     0x0001fe07   Thumb Code   136  zhihuiapi.o(.text)
    gprs_clear_index                         0x0001fe8f   Thumb Code    36  zhihuiapi.o(.text)
    vmc_batch_info_write                     0x0001feb3   Thumb Code   936  zhihuiapi.o(.text)
    pc_trade_info_clear                      0x0002025b   Thumb Code    76  zhihuiapi.o(.text)
    vmc_sn_to_no                             0x000202a7   Thumb Code   108  zhihuiapi.o(.text)
    zh_goods_update                          0x00020313   Thumb Code   246  zhihuiapi.o(.text)
    vmc_trade_info_read                      0x00020409   Thumb Code   142  zhihuiapi.o(.text)
    zh_init                                  0x00020497   Thumb Code    34  zhihuiapi.o(.text)
    vmc_data_init                            0x000204b9   Thumb Code   144  zhihuiapi.o(.text)
    vmc_data_clr                             0x00020549   Thumb Code     8  zhihuiapi.o(.text)
    vmc_batch_info_read                      0x00020551   Thumb Code    76  zhihuiapi.o(.text)
    zh_fault_update                          0x0002059d   Thumb Code   618  zhihuiapi.o(.text)
    zh_room_update                           0x00020807   Thumb Code    72  zhihuiapi.o(.text)
    zh_run_update                            0x0002084f   Thumb Code    44  zhihuiapi.o(.text)
    zh_all_update                            0x0002087b   Thumb Code    16  zhihuiapi.o(.text)
    vmcEndTrade                              0x0002088b   Thumb Code    88  zhihuiapi.o(.text)
    vmc_enter_offline                        0x000208e3   Thumb Code     8  zhihuiapi.o(.text)
    ComparisonSTR                            0x00020915   Thumb Code    82  gprsapi.o(.text)
    GPRS_AT                                  0x00020967   Thumb Code    70  gprsapi.o(.text)
    GPRS_ATE0                                0x000209ad   Thumb Code    52  gprsapi.o(.text)
    GPRS_CPIN                                0x000209e1   Thumb Code    70  gprsapi.o(.text)
    GPRS_IPR                                 0x00020a27   Thumb Code    60  gprsapi.o(.text)
    GPRS_CSQ                                 0x00020a63   Thumb Code   160  gprsapi.o(.text)
    GPRS_CREG                                0x00020b03   Thumb Code    82  gprsapi.o(.text)
    GPRS_CGREG                               0x00020b55   Thumb Code    82  gprsapi.o(.text)
    GPRS_QIFGCNT                             0x00020ba7   Thumb Code    70  gprsapi.o(.text)
    GPRS_QINDI                               0x00020bed   Thumb Code    52  gprsapi.o(.text)
    GPRS_QICSGP                              0x00020c21   Thumb Code    62  gprsapi.o(.text)
    GPRS_QIMODE                              0x00020c5f   Thumb Code    62  gprsapi.o(.text)
    GPRS_QISTAT                              0x00020c9d   Thumb Code   778  gprsapi.o(.text)
    GPRS_QIREGAPP                            0x00020fa7   Thumb Code   104  gprsapi.o(.text)
    GPRS_QIACT                               0x0002100f   Thumb Code   104  gprsapi.o(.text)
    GPRS_QILOCIP                             0x00021077   Thumb Code   164  gprsapi.o(.text)
    GPRS_QIMUX                               0x0002111b   Thumb Code   104  gprsapi.o(.text)
    GPRS_QIOPEN                              0x00021183   Thumb Code   200  gprsapi.o(.text)
    GPRS_QISEND                              0x0002124b   Thumb Code   452  gprsapi.o(.text)
    GPRS_QISTATE                             0x0002140f   Thumb Code   426  gprsapi.o(.text)
    GPRS_QIPOWERDOWN                         0x000215b9   Thumb Code    94  gprsapi.o(.text)
    GPRS_QIRD                                0x00021617   Thumb Code   114  gprsapi.o(.text)
    GPRS_QIHEAD                              0x00021689   Thumb Code   102  gprsapi.o(.text)
    GPRS_QISHOWPT                            0x000216ef   Thumb Code   102  gprsapi.o(.text)
    GPRS_QISHOWLA                            0x00021755   Thumb Code   102  gprsapi.o(.text)
    GPRS_QICLOSE                             0x000217bb   Thumb Code   340  gprsapi.o(.text)
    GPRS_QIDEACT                             0x0002190f   Thumb Code   106  gprsapi.o(.text)
    GPRS_Init                                0x00021979   Thumb Code   876  gprsapi.o(.text)
    GPRS_SendReport                          0x00021ce5   Thumb Code   782  gprsapi.o(.text)
    GPRS_GetAckReport                        0x00021ff3   Thumb Code   198  gprsapi.o(.text)
    mvc_gprs_init                            0x000220b9   Thumb Code    80  gprsapi.o(.text)
    save_hefan_huodao_info                   0x00022121   Thumb Code   150  hefanguiapi.o(.text)
    save_hefan_huodao_by_flash               0x000221b7   Thumb Code    24  hefanguiapi.o(.text)
    read_hefan_huodao_info                   0x000221cf   Thumb Code   188  hefanguiapi.o(.text)
    read_hefan_info_by_flash                 0x0002228b   Thumb Code    26  hefanguiapi.o(.text)
    setHefanCabinetState                     0x000222a5   Thumb Code   106  hefanguiapi.o(.text)
    HeFanGuiSendMBox                         0x0002230f   Thumb Code   114  hefanguiapi.o(.text)
    HeFanGuiHandle                           0x00022381   Thumb Code    70  hefanguiapi.o(.text)
    hefanHuodaoInit                          0x000223c7   Thumb Code   480  hefanguiapi.o(.text)
    hefanOutGoodsHandle                      0x000225a7   Thumb Code   172  hefanguiapi.o(.text)
    getHefanHuodaotState                     0x00022653   Thumb Code    32  hefanguiapi.o(.text)
    setHefanHuodaotState                     0x00022673   Thumb Code    36  hefanguiapi.o(.text)
    getHefanCabinetState                     0x00022697   Thumb Code    34  hefanguiapi.o(.text)
    get_hefan_Index                          0x000226b9   Thumb Code    20  hefanguiapi.o(.text)
    hefan_clear_trade                        0x000226cd   Thumb Code    66  hefanguiapi.o(.text)
    hefanGetParaVlaue                        0x0002270f   Thumb Code   204  hefanguiapi.o(.text)
    hefanSetParaVlaue                        0x000227db   Thumb Code   216  hefanguiapi.o(.text)
    hefanHuodaoCheck                         0x000228b3   Thumb Code   246  hefanguiapi.o(.text)
    hefanAddgoodsHandle                      0x000229a9   Thumb Code   246  hefanguiapi.o(.text)
    hefanHuodaoInfo                          0x00022a9f   Thumb Code  2492  hefanguiapi.o(.text)
    hefanHuodaoTest                          0x0002345b   Thumb Code   818  hefanguiapi.o(.text)
    hefanCabinetControl                      0x0002378d   Thumb Code  1740  hefanguiapi.o(.text)
    hefanControl                             0x00023e59   Thumb Code   678  hefanguiapi.o(.text)
    hefanAddgoods                            0x000240ff   Thumb Code   810  hefanguiapi.o(.text)
    hefanInitPage                            0x00024429   Thumb Code   392  hefanguiapi.o(.text)
    hefanMannage                             0x000245b1   Thumb Code   746  hefanguiapi.o(.text)
    msleep                                   0x000248a9   Thumb Code    28  colapi.o(.text)
    col_reset                                0x000248f9   Thumb Code    28  colapi.o(.text)
    col_switch                               0x00024915   Thumb Code    40  colapi.o(.text)
    col_ctrl                                 0x0002493d   Thumb Code   102  colapi.o(.text)
    col_column                               0x000249a3   Thumb Code   140  colapi.o(.text)
    col_poll                                 0x00024a2f   Thumb Code    50  colapi.o(.text)
    col_status                               0x00024a61   Thumb Code   132  colapi.o(.text)
    colReset                                 0x00024ae5   Thumb Code   122  colapi.o(.text)
    colTrade                                 0x00024b5f   Thumb Code    96  colapi.o(.text)
    colCtrl                                  0x00024bbf   Thumb Code    98  colapi.o(.text)
    colTestBin                               0x00024c21   Thumb Code   138  colapi.o(.text)
    COL_driver                               0x00024cab   Thumb Code   266  colapi.o(.text)
    Uart2TaskDevice                          0x00024dc1   Thumb Code  3772  taskdevice.o(.text)
    MdbBusHardwareReset                      0x00025cd5   Thumb Code    64  mdb_uart2.o(.text)
    MdbConversation                          0x00025d15   Thumb Code   182  mdb_uart2.o(.text)
    Uart2RecvEvbAckFromDevice                0x00025dd9   Thumb Code   174  evb_uart2.o(.text)
    EvbConversation                          0x00025e87   Thumb Code   486  evb_uart2.o(.text)
    BillDevSellect                           0x000260d9   Thumb Code    66  billaccepter.o(.text)
    BillDevEnable                            0x0002611b   Thumb Code   436  billaccepter.o(.text)
    BillDevInit                              0x000262cf   Thumb Code   996  billaccepter.o(.text)
    BillDevDisable                           0x000266b3   Thumb Code    66  billaccepter.o(.text)
    BillDevReject                            0x000266f5   Thumb Code    32  billaccepter.o(.text)
    BillRecyclerEnableExpanse                0x00026715   Thumb Code   144  billaccepter.o(.text)
    BillRecyclerTubeExpanse                  0x000267a5   Thumb Code   236  billaccepter.o(.text)
    BillRecyclerPayoutValueExpanse           0x00026891   Thumb Code   920  billaccepter.o(.text)
    BillRecyclerPayoutNumExpanse             0x00026c29   Thumb Code   408  billaccepter.o(.text)
    BillDevReturn                            0x00026dc1   Thumb Code   130  billaccepter.o(.text)
    BillDevEscrow                            0x00026e43   Thumb Code   280  billaccepter.o(.text)
    BillDevProcess                           0x00026f5b   Thumb Code   996  billaccepter.o(.text)
    BillRecyclerIdExpanse                    0x0002733f   Thumb Code    96  billaccepter.o(.text)
    BillRecyclerFeatureEnableExpanse         0x0002739f   Thumb Code    76  billaccepter.o(.text)
    BillRecyclerSetupExpanse                 0x000273eb   Thumb Code   722  billaccepter.o(.text)
    RecyclerDevInit                          0x000276bd   Thumb Code  1524  billaccepter.o(.text)
    CoinDevEnable                            0x00027ccd   Thumb Code   370  coinaccepter .o(.text)
    CoinDevInit                              0x00027e3f   Thumb Code  1084  coinaccepter .o(.text)
    CoinDevDisable                           0x0002827b   Thumb Code    66  coinaccepter .o(.text)
    GetCoinDevState                          0x000282bd   Thumb Code    78  coinaccepter .o(.text)
    CoinDevProcess                           0x0002830b   Thumb Code   366  coinaccepter .o(.text)
    CoinDevProcessExpanse                    0x00028479   Thumb Code   240  coinaccepter .o(.text)
    ReaderUpdateRecMsg                       0x00028631   Thumb Code   146  mdbreader.o(.text)
    ReaderSessionComplete                    0x000286c3   Thumb Code   104  mdbreader.o(.text)
    ReaderUpdateConfigData                   0x0002872b   Thumb Code    94  mdbreader.o(.text)
    ReaderCashSale                           0x00028789   Thumb Code   108  mdbreader.o(.text)
    ReaderSessionVendFail                    0x000287f5   Thumb Code    62  mdbreader.o(.text)
    ReaderSessionVendSuccess                 0x00028833   Thumb Code    88  mdbreader.o(.text)
    ReaderSessionVendRequest                 0x0002888b   Thumb Code   108  mdbreader.o(.text)
    ReaderDevDisable                         0x000288f7   Thumb Code   774  mdbreader.o(.text)
    ReaderDevEnable                          0x00028bfd   Thumb Code    68  mdbreader.o(.text)
    ReaderDevProcess                         0x00028c41   Thumb Code   552  mdbreader.o(.text)
    ReaderDevInit                            0x00028e69   Thumb Code  1090  mdbreader.o(.text)
    RecvEvbAckFromDevice                     0x000292b9   Thumb Code   132  lifttabledriver.o(.text)
    LiftTableUart                            0x0002933d   Thumb Code   302  lifttabledriver.o(.text)
    LiftTableDriver                          0x0002946b   Thumb Code  1394  lifttabledriver.o(.text)
    ACDCHandle                               0x000299ed   Thumb Code    96  acdcdriver.o(.text)
    ChannelHandle                            0x00029a81   Thumb Code   376  channeldriver.o(.text)
    HopperAccepter_Handle                    0x00029c01   Thumb Code   472  hopperdriver.o(.text)
    HopperAccepter_CheckHPOk                 0x00029dd9   Thumb Code    98  hopperdriver.o(.text)
    HopperAccepter_HpOutHandle               0x00029e3b   Thumb Code   178  hopperdriver.o(.text)
    HopperAccepter_GetState                  0x00029eed   Thumb Code   124  hopperdriver.o(.text)
    ChangeGetTubes                           0x0002a001   Thumb Code   134  mdbchanger.o(.text)
    ChangePayoutProcessLevel3                0x0002a087   Thumb Code   320  mdbchanger.o(.text)
    ChangePayoutProcessLevel2                0x0002a1c7   Thumb Code    72  mdbchanger.o(.text)
    Uart3TaskDevice                          0x0002a2f5   Thumb Code  3766  taskuart3device.o(.text)
    vmc_send_pc                              0x0002b251   Thumb Code   634  zhihuipc.o(.text)
    vmc_ack_rpt                              0x0002b4cb   Thumb Code    58  zhihuipc.o(.text)
    pc_aisle_set                             0x0002b5e3   Thumb Code    70  zhihuipc.o(.text)
    vmc_trade_info                           0x0002b629   Thumb Code   636  zhihuipc.o(.text)
    vmc_goods_price                          0x0002bae5   Thumb Code   330  zhihuipc.o(.text)
    vmc_goods_info                           0x0002bc2f   Thumb Code   126  zhihuipc.o(.text)
    vmc_aisle_run_info                       0x0002bd9d   Thumb Code   232  zhihuipc.o(.text)
    vmc_register_pc                          0x0002bf03   Thumb Code   840  zhihuipc.o(.text)
    vmc_poll_pc                              0x0002c24b   Thumb Code   444  zhihuipc.o(.text)
    vmc_human_rpt                            0x0002c407   Thumb Code     8  zhihuipc.o(.text)
    vmc_online_rpt                           0x0002c40f   Thumb Code    36  zhihuipc.o(.text)
    vmc_weihu_rpt                            0x0002c433   Thumb Code    10  zhihuipc.o(.text)
    vmc_mac_run_info                         0x0002c43d   Thumb Code   204  zhihuipc.o(.text)
    vmc_sale_sum                             0x0002c509   Thumb Code    96  zhihuipc.o(.text)
    vmc_config_info                          0x0002c569   Thumb Code   528  zhihuipc.o(.text)
    vmc_setup_pc                             0x0002c779   Thumb Code    56  zhihuipc.o(.text)
    vmc_report_pc                            0x0002c7b1   Thumb Code    94  zhihuipc.o(.text)
    vmc_normal_rpt                           0x0002c80f   Thumb Code    54  zhihuipc.o(.text)
    vmc_door_rpt                             0x0002c845   Thumb Code   328  zhihuipc.o(.text)
    vmc_trade_rpt                            0x0002c98d   Thumb Code    54  zhihuipc.o(.text)
    vmc_button_rpt                           0x0002c9c3   Thumb Code    62  zhihuipc.o(.text)
    vmc_trade_over_rpt                       0x0002ca01   Thumb Code    36  zhihuipc.o(.text)
    vmc_money_rpt                            0x0002ca25   Thumb Code   152  zhihuipc.o(.text)
    printTrade                               0x0002cabd   Thumb Code    54  zhihuipc.o(.text)
    vmc_offline_report                       0x0002caf3   Thumb Code     6  zhihuipc.o(.text)
    vmc_trade_clear                          0x0002caf9   Thumb Code    56  zhihuipc.o(.text)
    task3_zh_poll                            0x0002cb31   Thumb Code   234  zhihuipc.o(.text)
    PackSNUpdate                             0x0002cd09   Thumb Code    28  ubprotocol.o(.text)
    VPSerialInit                             0x0002cd25   Thumb Code    28  ubprotocol.o(.text)
    VPBusTxMsg                               0x0002cd41   Thumb Code   560  ubprotocol.o(.text)
    changeFailedBeep                         0x0002cf71   Thumb Code    18  ubprotocol.o(.text)
    MoneySend                                0x0002cf83   Thumb Code    44  ubprotocol.o(.text)
    MoneySendInfo                            0x0002cfaf   Thumb Code    44  ubprotocol.o(.text)
    SendCoinDem                              0x0002cfdb   Thumb Code    32  ubprotocol.o(.text)
    MoneyRec                                 0x0002cffb   Thumb Code    44  ubprotocol.o(.text)
    Uart3pcGetChWhile                        0x0002d027   Thumb Code    32  ubprotocol.o(.text)
    VPBusFrameUnPack                         0x0002d047   Thumb Code  1108  ubprotocol.o(.text)
    VPMsgPackSend                            0x0002d49b   Thumb Code 13238  ubprotocol.o(.text)
    VPMission_Setup_RPT                      0x00030851   Thumb Code    92  ubprotocol.o(.text)
    VP_CMD_HuodaoPar                         0x000308ad   Thumb Code   180  ubprotocol.o(.text)
    VP_CMD_HuodaoNo                          0x00030961   Thumb Code   312  ubprotocol.o(.text)
    VP_CMD_GoodsPar                          0x00030a99   Thumb Code   396  ubprotocol.o(.text)
    VP_CMD_Position                          0x00030c25   Thumb Code   150  ubprotocol.o(.text)
    VPMission_ColumnSta_RPT                  0x00030cbb   Thumb Code   104  ubprotocol.o(.text)
    VP_CMD_GetColumnSta                      0x00030d23   Thumb Code    68  ubprotocol.o(.text)
    VP_CMD_SetHuodao                         0x00030d67   Thumb Code   450  ubprotocol.o(.text)
    VPMission_Act_RPT                        0x00030f29   Thumb Code   442  ubprotocol.o(.text)
    VPMission_Status_RPT                     0x000310e3   Thumb Code   500  ubprotocol.o(.text)
    VP_CMD_GetStatus                         0x000312d7   Thumb Code   154  ubprotocol.o(.text)
    VPMission_Info_RPT                       0x00031371   Thumb Code   292  ubprotocol.o(.text)
    VP_CMD_GetInfo                           0x00031495   Thumb Code   240  ubprotocol.o(.text)
    VP_CMD_GetInfoExp                        0x00031585   Thumb Code   288  ubprotocol.o(.text)
    VPMission_OfflineData_RPT                0x000316a5   Thumb Code   492  ubprotocol.o(.text)
    VP_Payout_Ind                            0x00031891   Thumb Code   204  ubprotocol.o(.text)
    VP_Cost_Ind                              0x0003195d   Thumb Code   204  ubprotocol.o(.text)
    VP_Vendout_Ind                           0x00031a29   Thumb Code   330  ubprotocol.o(.text)
    VP_Reset_Ind                             0x00031b73   Thumb Code   248  ubprotocol.o(.text)
    VP_Control_Ind                           0x00031c6b   Thumb Code   670  ubprotocol.o(.text)
    VPMission_Poll                           0x00031f09   Thumb Code   812  ubprotocol.o(.text)
    VPMission_Payin_RPT                      0x00032235   Thumb Code   300  ubprotocol.o(.text)
    VPMission_Payout_RPT                     0x00032361   Thumb Code   216  ubprotocol.o(.text)
    VPMission_Cost_RPT                       0x00032439   Thumb Code   208  ubprotocol.o(.text)
    VPMission_Button_RPT                     0x00032509   Thumb Code   312  ubprotocol.o(.text)
    VPMission_Vendout_RPT                    0x00032641   Thumb Code   256  ubprotocol.o(.text)
    VPMission_Admin_RPT                      0x00032741   Thumb Code   302  ubprotocol.o(.text)
    vmc_gprs_send                            0x000328ad   Thumb Code    68  vmc_gprs_pc.o(.text)
    vmc_gprs_recv                            0x000328f1   Thumb Code   586  vmc_gprs_pc.o(.text)
    ship_cache_empty                         0x00032b3b   Thumb Code    24  vmc_gprs_pc.o(.text)
    msg_head_config                          0x00032bab   Thumb Code    40  vmc_gprs_pc.o(.text)
    vmc_gprs_goods                           0x00032bd3   Thumb Code  1016  vmc_gprs_pc.o(.text)
    vmc_gprs_trade_send                      0x00032fcb   Thumb Code   548  vmc_gprs_pc.o(.text)
    trade_cache_init                         0x000331ef   Thumb Code   546  vmc_gprs_pc.o(.text)
    vmc_gprs_poll                            0x00033411   Thumb Code   122  vmc_gprs_pc.o(.text)
    vmc_gprs_aisle                           0x0003348b   Thumb Code   246  vmc_gprs_pc.o(.text)
    vmc_gprs_config                          0x00033581   Thumb Code   456  vmc_gprs_pc.o(.text)
    vmc_gprs_run                             0x00033749   Thumb Code   472  vmc_gprs_pc.o(.text)
    vmc_gprs_fualt                           0x00033921   Thumb Code   364  vmc_gprs_pc.o(.text)
    ship_cache_poll                          0x00033a8d   Thumb Code  1282  vmc_gprs_pc.o(.text)
    vmc_gprs_register                        0x00033f8f   Thumb Code   248  vmc_gprs_pc.o(.text)
    vmc_gprs_total                           0x00034087   Thumb Code  1310  vmc_gprs_pc.o(.text)
    vmc_gprs_trade_rpt                       0x000345a5   Thumb Code    16  vmc_gprs_pc.o(.text)
    gprs_weihu_rpt                           0x000345b5   Thumb Code     2  vmc_gprs_pc.o(.text)
    vmc_gprs_setup                           0x000345b7   Thumb Code   226  vmc_gprs_pc.o(.text)
    task3_gprs_poll                          0x00034699   Thumb Code   464  vmc_gprs_pc.o(.text)
    VPSIMPLE_hdnums                          0x00034875   Thumb Code    54  ubprotocol_simple.o(.text)
    VPSIMPLE_gethdstart                      0x000348ab   Thumb Code    48  ubprotocol_simple.o(.text)
    VPSIMPLE_Sethdquery                      0x000348db   Thumb Code    10  ubprotocol_simple.o(.text)
    SIMPLESIMPLEVPSerialInit                 0x000348e5   Thumb Code    28  ubprotocol_simple.o(.text)
    SIMPLESIMPLEVPBusTxMsg                   0x00034901   Thumb Code   182  ubprotocol_simple.o(.text)
    changeSIMPLEFailedBeep                   0x000349b7   Thumb Code    18  ubprotocol_simple.o(.text)
    Uart3GetChWhile                          0x000349c9   Thumb Code    32  ubprotocol_simple.o(.text)
    SIMPLESIMPLEVPBusFrameUnPack             0x000349e9   Thumb Code   460  ubprotocol_simple.o(.text)
    SIMPLESIMPLEVPMsgPackSend                0x00034bb5   Thumb Code  1806  ubprotocol_simple.o(.text)
    VPMissionSIMPLE_Setup_RPT                0x000352c3   Thumb Code    12  ubprotocol_simple.o(.text)
    VPMissionSIMPLE_Vendout_RPT              0x000352cf   Thumb Code    28  ubprotocol_simple.o(.text)
    VPSIMPLE_Vendout_Ind                     0x000352eb   Thumb Code   222  ubprotocol_simple.o(.text)
    VPSIMPLE_Display_Ind                     0x000353c9   Thumb Code   900  ubprotocol_simple.o(.text)
    VPMissionSIMPLE_Get_Admin2               0x0003574d   Thumb Code   402  ubprotocol_simple.o(.text)
    VPSIMPLE_Admin_Ind                       0x000358df   Thumb Code   332  ubprotocol_simple.o(.text)
    VPSIMPLE_Result_Ind                      0x00035a2b   Thumb Code   956  ubprotocol_simple.o(.text)
    VPMissionSIMPLESIMPLE_Poll               0x00035de7   Thumb Code    80  ubprotocol_simple.o(.text)
    VPMissionSIMPLE_Button_RPT               0x00035e37   Thumb Code    20  ubprotocol_simple.o(.text)
    VPMissionSIMPLE_Admin_RPT                0x00035e4b   Thumb Code   792  ubprotocol_simple.o(.text)
    SelectKeySet                             0x000362ad   Thumb Code    90  selectkey.o(.text)
    GetMiddleSelectKey                       0x00036307   Thumb Code    42  selectkey.o(.text)
    GetSelectKey                             0x00036331   Thumb Code   206  selectkey.o(.text)
    SelectKey_InitProc                       0x000363ff   Thumb Code    28  selectkey.o(.text)
    UpdateSelectionLed                       0x0003641b   Thumb Code    88  selectkey.o(.text)
    Uart1TaskDevice                          0x00036549   Thumb Code   640  taskuart1device.o(.text)
    ZhkSerial1PutCh                          0x0003689d   Thumb Code    18  xmt.o(.text)
    delay                                    0x000368af   Thumb Code     2  xmt.o(.text)
    DelayMs                                  0x000368b1   Thumb Code     2  xmt.o(.text)
    XMTSerialInit                            0x000368b3   Thumb Code     2  xmt.o(.text)
    XMTBusTxMsg                              0x000368b5   Thumb Code    70  xmt.o(.text)
    XMTMsgPackSend                           0x000368fb   Thumb Code    96  xmt.o(.text)
    XMTBusUnpack                             0x0003695b   Thumb Code   316  xmt.o(.text)
    XMTMission_GetTemperature                0x00036a97   Thumb Code    96  xmt.o(.text)
    XMTMission_SetTemperature                0x00036af7   Thumb Code    98  xmt.o(.text)
    XMTMission_SetTemperatureS               0x00036b59   Thumb Code    70  xmt.o(.text)
    HeFanGuiRecvAckDevice                    0x00036bf5   Thumb Code   162  hefangui.o(.text)
    HeFanGuiUart                             0x00036c97   Thumb Code   300  hefangui.o(.text)
    HeFanGuiDriver                           0x00036dc3   Thumb Code   282  hefangui.o(.text)
    FS_init                                  0x00037251   Thumb Code    18  fs_billchanger.o(.text)
    FS_poll                                  0x00037549   Thumb Code   426  fs_billchanger.o(.text)
    FS_package                               0x000376f3   Thumb Code    92  fs_billchanger.o(.text)
    FS_readStatus                            0x00037bbd   Thumb Code    54  fs_billchanger.o(.text)
    FS_billDispense                          0x00037cf1   Thumb Code   760  fs_billchanger.o(.text)
    FS_dispense                              0x00038035   Thumb Code   150  fs_billchanger.o(.text)
    FS_billReset                             0x000380cb   Thumb Code    90  fs_billchanger.o(.text)
    FS_getStatus                             0x00038137   Thumb Code   176  fs_billchanger.o(.text)
    FS_mainTask                              0x000381e7   Thumb Code   194  fs_billchanger.o(.text)
    Uart2PutCh                               0x00038385   Thumb Code    18  uart2.o(.text)
    SetUart2ParityMode                       0x00038397   Thumb Code    62  uart2.o(.text)
    MdbPutChr                                0x000383d5   Thumb Code    60  uart2.o(.text)
    Uart2IsrHandler                          0x00038411   Thumb Code   284  uart2.o(.text)
    SetMdbStartStatus                        0x0003852d   Thumb Code     8  uart2.o(.text)
    ClrUart2Buff                             0x00038535   Thumb Code    18  uart2.o(.text)
    InitUart2                                0x00038547   Thumb Code   108  uart2.o(.text)
    Uart2BuffIsNotEmpty                      0x000385b3   Thumb Code    20  uart2.o(.text)
    Uart2PutStr                              0x000385c7   Thumb Code    34  uart2.o(.text)
    Uart2GetStr                              0x000385e9   Thumb Code    88  uart2.o(.text)
    Uart2GetCh                               0x00038641   Thumb Code    42  uart2.o(.text)
    GetMdbStatus                             0x0003866b   Thumb Code     6  uart2.o(.text)
    SetUart2MdbMode                          0x00038671   Thumb Code    50  uart2.o(.text)
    SetUart2Evb1Mode                         0x000386a3   Thumb Code    50  uart2.o(.text)
    SetUart2Evb2Mode                         0x000386d5   Thumb Code    50  uart2.o(.text)
    SetUart2Evb3Mode                         0x00038707   Thumb Code    50  uart2.o(.text)
    Uart0IsrHandler                          0x00038761   Thumb Code   156  uart0.o(.text)
    InitUart0                                0x000387fd   Thumb Code    84  uart0.o(.text)
    Uart0PutChar                             0x00038851   Thumb Code    18  uart0.o(.text)
    Uart0PutStr                              0x00038863   Thumb Code    26  uart0.o(.text)
    Uart0BuffIsNotEmpty                      0x0003887d   Thumb Code    20  uart0.o(.text)
    Uart0GetCh                               0x00038891   Thumb Code    42  uart0.o(.text)
    ClrUart0Buff                             0x000388bb   Thumb Code    12  uart0.o(.text)
    PrintLog                                 0x000388c7   Thumb Code    22  uart0.o(.text)
    Trace                                    0x000388dd   Thumb Code    62  uart0.o(.text)
    Uart1IsrHandler                          0x00038931   Thumb Code   156  uart1.o(.text)
    InitUart1                                0x000389cd   Thumb Code   122  uart1.o(.text)
    Uart1PutChar                             0x00038a47   Thumb Code    18  uart1.o(.text)
    Uart1PutStr                              0x00038a59   Thumb Code    26  uart1.o(.text)
    Uart1BuffIsNotEmpty                      0x00038a73   Thumb Code    20  uart1.o(.text)
    Uart1_ClrBuf                             0x00038a87   Thumb Code    24  uart1.o(.text)
    Uart1GetCh                               0x00038a9f   Thumb Code    42  uart1.o(.text)
    Uart1_Read                               0x00038ac9   Thumb Code    66  uart1.o(.text)
    SetUart1ParityMode                       0x00038b0b   Thumb Code    62  uart1.o(.text)
    Uart3IsrHandler                          0x00038b65   Thumb Code   156  uart3.o(.text)
    InitUart3                                0x00038c01   Thumb Code   120  uart3.o(.text)
    Uart3PutChar                             0x00038c79   Thumb Code    18  uart3.o(.text)
    Uart3PutStr                              0x00038c8b   Thumb Code    26  uart3.o(.text)
    uart3_clr_buf                            0x00038ca5   Thumb Code    12  uart3.o(.text)
    Uart3BuffIsNotEmpty                      0x00038cb1   Thumb Code    20  uart3.o(.text)
    Uart3GetCh                               0x00038cc5   Thumb Code    42  uart3.o(.text)
    Uart3Read                                0x00038cef   Thumb Code    86  uart3.o(.text)
    RTCStartOrStop                           0x00038d5d   Thumb Code    40  rtc.o(.text)
    InitRtc                                  0x00038d85   Thumb Code    62  rtc.o(.text)
    RTCReadTime                              0x00038dc3   Thumb Code    48  rtc.o(.text)
    RTCSetTime                               0x00038df3   Thumb Code    36  rtc.o(.text)
    RTCSetYMWDHMS                            0x00038e17   Thumb Code    70  rtc.o(.text)
    I2C0_IRQHandler                          0x00038e69   Thumb Code   516  i2c.o(.text)
    InitI2C0                                 0x0003906d   Thumb Code    32  i2c.o(.text)
    Wait_I2C0_End                            0x0003908d   Thumb Code    48  i2c.o(.text)
    I2C0SendByte                             0x000390bd   Thumb Code    48  i2c.o(.text)
    I2C0RecvByte                             0x000390ed   Thumb Code    50  i2c.o(.text)
    I2C0RdNByte                              0x0003911f   Thumb Code   126  i2c.o(.text)
    I2C0WrNByte                              0x0003919d   Thumb Code   120  i2c.o(.text)
    LCDBackLight                             0x00039235   Thumb Code    50  lcd.o(.text)
    UC1608EPutByte                           0x00039267   Thumb Code   112  lcd.o(.text)
    UC1608EPutData                           0x000392d7   Thumb Code    96  lcd.o(.text)
    UC1608EPutCmd                            0x00039337   Thumb Code    96  lcd.o(.text)
    LCDSetCursor                             0x00039397   Thumb Code    34  lcd.o(.text)
    LCDClrScreen                             0x000393b9   Thumb Code    42  lcd.o(.text)
    LCDInit                                  0x000393e3   Thumb Code    74  lcd.o(.text)
    LCDClrArea                               0x0003942d   Thumb Code    60  lcd.o(.text)
    LCDPutCh                                 0x00039469   Thumb Code    24  lcd.o(.text)
    LCDPutAscii                              0x00039481   Thumb Code   184  lcd.o(.text)
    LCDPutAsciiFont                          0x00039539   Thumb Code   252  lcd.o(.text)
    LCDPutAsciiBlodFont                      0x00039635   Thumb Code   230  lcd.o(.text)
    LCDPutAscii16_32                         0x0003971b   Thumb Code   406  lcd.o(.text)
    LCDPutAscii24_48                         0x000398b1   Thumb Code   650  lcd.o(.text)
    LCDPutChinese                            0x00039b3b   Thumb Code   184  lcd.o(.text)
    LCDPutChinese32                          0x00039bf3   Thumb Code   328  lcd.o(.text)
    LCDPutStr                                0x00039d3b   Thumb Code   114  lcd.o(.text)
    LCDClearLineDraw                         0x00039dad   Thumb Code   406  lcd.o(.text)
    LCDPrintf                                0x00039f43   Thumb Code   172  lcd.o(.text)
    LCDPrintf32                              0x00039fef   Thumb Code   172  lcd.o(.text)
    LCDNumberFontPrintf                      0x0003a09b   Thumb Code   198  lcd.o(.text)
    LCDPutBmp                                0x0003a161   Thumb Code   144  lcd.o(.text)
    LCDSpecialPicPrintf                      0x0003a1f1   Thumb Code   100  lcd.o(.text)
    LCDDrawLine                              0x0003a255   Thumb Code    38  lcd.o(.text)
    LCDDrawRectangle                         0x0003a27b   Thumb Code   110  lcd.o(.text)
    LCDPutLOGOBmp                            0x0003a2e9   Thumb Code   118  lcd.o(.text)
    SetKeyRowInput                           0x0003a379   Thumb Code    38  key.o(.text)
    SetKeyColOutput                          0x0003a39f   Thumb Code   164  key.o(.text)
    ReadRowValue                             0x0003a443   Thumb Code    14  key.o(.text)
    ReadColValue                             0x0003a451   Thumb Code    42  key.o(.text)
    SetKeyColInput                           0x0003a47b   Thumb Code    98  key.o(.text)
    SetKeyRowOutput                          0x0003a4dd   Thumb Code    44  key.o(.text)
    ScanDelayTime                            0x0003a509   Thumb Code    28  key.o(.text)
    ScanKeyBoard                             0x0003a525   Thumb Code   210  key.o(.text)
    EINT2_IsrHandler                         0x0003a5f7   Thumb Code   116  key.o(.text)
    InitKeyboard                             0x0003a66b   Thumb Code   120  key.o(.text)
    ReadKeyValue                             0x0003a6e3   Thumb Code    48  key.o(.text)
    ClearKey                                 0x0003a713   Thumb Code    12  key.o(.text)
    DisabaleKeyBoard                         0x0003a71f   Thumb Code    32  key.o(.text)
    EnableKeyBoard                           0x0003a73f   Thumb Code    20  key.o(.text)
    ReadMaintainKeyValue                     0x0003a753   Thumb Code   130  key.o(.text)
    ReadPayBackKeyValue                      0x0003a7d5   Thumb Code    40  key.o(.text)
    ReadGameKeyValue                         0x0003a7fd   Thumb Code    40  key.o(.text)
    ReadCloseHumanKeyValue                   0x0003a825   Thumb Code    40  key.o(.text)
    gameLedControl                           0x0003a84d   Thumb Code    50  key.o(.text)
    GetKeyInValue                            0x0003a87f   Thumb Code   120  key.o(.text)
    EnableParallelPluseCoinAcceptor          0x0003a8fd   Thumb Code    30  pcoin.o(.text)
    InitParallelPluseCoinAcceptor            0x0003a91b   Thumb Code    40  pcoin.o(.text)
    DisableParallelPluseCoinAcceptor         0x0003a943   Thumb Code    30  pcoin.o(.text)
    GetParallelCoinAcceptorStatus            0x0003a961   Thumb Code     6  pcoin.o(.text)
    ReadParallelCoinAcceptor                 0x0003a967   Thumb Code    38  pcoin.o(.text)
    ScanPPCoinChannel                        0x0003a98d   Thumb Code   284  pcoin.o(.text)
    EnableSerialPluseCoinAcceptor            0x0003aaa9   Thumb Code    30  pcoin.o(.text)
    InitSerialPluseCoinAcdeptor              0x0003aac7   Thumb Code    40  pcoin.o(.text)
    DisableSerialPluseCoinAcceptor           0x0003aaef   Thumb Code    30  pcoin.o(.text)
    GetSerialCoinAcceptorStatus              0x0003ab0d   Thumb Code     6  pcoin.o(.text)
    ReadSerialPluseCoinAcceptor              0x0003ab13   Thumb Code    30  pcoin.o(.text)
    ScanSPCoinChannel                        0x0003ab31   Thumb Code   110  pcoin.o(.text)
    TIMER3_IRQHandler                        0x0003ac05   Thumb Code    18  timer.o(.text)
    TIMER2_IRQHandler                        0x0003ac17   Thumb Code    18  timer.o(.text)
    TIMER1_IRQHandler                        0x0003ac29   Thumb Code    42  timer.o(.text)
    TIMER0_IRQHandler                        0x0003ac53   Thumb Code   478  timer.o(.text)
    InitTimer                                0x0003ae31   Thumb Code   222  timer.o(.text)
    InitBuzzer                               0x0003af49   Thumb Code    24  buzzer.o(.text)
    Buzzer                                   0x0003af61   Thumb Code    84  buzzer.o(.text)
    SPIHightSpeed                            0x0003afb9   Thumb Code    20  at45db161d.o(.text)
    SPIInit                                  0x0003afcd   Thumb Code   120  at45db161d.o(.text)
    InitAT45DB                               0x0003b045   Thumb Code    14  at45db161d.o(.text)
    SPIDeviceSelect                          0x0003b053   Thumb Code    86  at45db161d.o(.text)
    SPIReadAndWriteCh                        0x0003b0a9   Thumb Code    26  at45db161d.o(.text)
    AT45DBReadID                             0x0003b0c3   Thumb Code    50  at45db161d.o(.text)
    AT45DBReadStatus                         0x0003b0f5   Thumb Code    34  at45db161d.o(.text)
    AT45DBWaitOK                             0x0003b117   Thumb Code    30  at45db161d.o(.text)
    AT45DBReadNByte                          0x0003b135   Thumb Code    92  at45db161d.o(.text)
    AT45DBWriteBuffer                        0x0003b191   Thumb Code   100  at45db161d.o(.text)
    AT45DBWriteNByte                         0x0003b1f5   Thumb Code   100  at45db161d.o(.text)
    AT45DBCompare                            0x0003b259   Thumb Code    88  at45db161d.o(.text)
    AT45DBReadPage                           0x0003b2b1   Thumb Code    34  at45db161d.o(.text)
    AT45DBWritePage                          0x0003b2d3   Thumb Code   108  at45db161d.o(.text)
    GPRS_SendCmd                             0x0003b355   Thumb Code    52  gprs_uart.o(.text)
    GPRS_RecvAck                             0x0003b389   Thumb Code    46  gprs_uart.o(.text)
    GPRS_MissionProcess                      0x0003b3b7   Thumb Code    84  gprs_uart.o(.text)
    GPRS_SendData                            0x0003b40b   Thumb Code   124  gprs_uart.o(.text)
    __sysTickIsr                             0x0003b491   Thumb Code    22  os_cpu_c.o(.text)
    OSStartHighRdy                           0x0003b4a7   Thumb Code    74  os_cpu_c.o(.text)
    OSIntCtxSw                               0x0003b4f1   Thumb Code    10  os_cpu_c.o(.text)
    OSTaskStkInit                            0x0003b4fb   Thumb Code   118  os_cpu_c.o(.text)
    OS_TaskStat                              0x0003b581   Thumb Code   116  os_core.o(.text)
    OS_TaskIdle                              0x0003b625   Thumb Code    28  os_core.o(.text)
    OSInit                                   0x0003b737   Thumb Code    48  os_core.o(.text)
    OSIntEnter                               0x0003b767   Thumb Code    28  os_core.o(.text)
    OSIntExit                                0x0003b783   Thumb Code   124  os_core.o(.text)
    OSSchedLock                              0x0003b7ff   Thumb Code    36  os_core.o(.text)
    OS_Sched                                 0x0003b823   Thumb Code    88  os_core.o(.text)
    OSSchedUnlock                            0x0003b87b   Thumb Code    66  os_core.o(.text)
    OSStart                                  0x0003b8bd   Thumb Code    68  os_core.o(.text)
    OSStatInit                               0x0003b901   Thumb Code    52  os_core.o(.text)
    OSTimeTick                               0x0003b935   Thumb Code   240  os_core.o(.text)
    OSVersion                                0x0003ba25   Thumb Code     4  os_core.o(.text)
    OS_Dummy                                 0x0003ba29   Thumb Code     2  os_core.o(.text)
    OS_EventTaskRdy                          0x0003ba2b   Thumb Code   180  os_core.o(.text)
    OS_EventTaskWait                         0x0003badf   Thumb Code   114  os_core.o(.text)
    OS_EventTO                               0x0003bb51   Thumb Code    72  os_core.o(.text)
    OS_EventWaitListInit                     0x0003bb99   Thumb Code    42  os_core.o(.text)
    OS_TCBInit                               0x0003bbc3   Thumb Code   222  os_core.o(.text)
    OSFlagAccept                             0x0003bcc1   Thumb Code   260  os_flag.o(.text)
    OSFlagCreate                             0x0003bdc5   Thumb Code    72  os_flag.o(.text)
    OS_FlagUnlink                            0x0003be0d   Thumb Code    36  os_flag.o(.text)
    OSFlagDel                                0x0003be8b   Thumb Code   180  os_flag.o(.text)
    OSFlagPend                               0x0003bfbb   Thumb Code   522  os_flag.o(.text)
    OSFlagPost                               0x0003c1c5   Thumb Code   270  os_flag.o(.text)
    OSFlagQuery                              0x0003c2d3   Thumb Code    48  os_flag.o(.text)
    OS_FlagInit                              0x0003c303   Thumb Code    42  os_flag.o(.text)
    OSMboxAccept                             0x0003c335   Thumb Code    38  os_mbox.o(.text)
    OSMboxCreate                             0x0003c35b   Thumb Code    64  os_mbox.o(.text)
    OSMboxDel                                0x0003c39b   Thumb Code   172  os_mbox.o(.text)
    OSMboxPend                               0x0003c447   Thumb Code   180  os_mbox.o(.text)
    OSMboxPost                               0x0003c4fb   Thumb Code    80  os_mbox.o(.text)
    OSMboxPostOpt                            0x0003c54b   Thumb Code   108  os_mbox.o(.text)
    OSMboxQuery                              0x0003c5b7   Thumb Code   112  os_mbox.o(.text)
    OSMemCreate                              0x0003c635   Thumb Code   140  os_mem.o(.text)
    OSMemGet                                 0x0003c6c1   Thumb Code    60  os_mem.o(.text)
    OSMemPut                                 0x0003c6fd   Thumb Code    58  os_mem.o(.text)
    OSMemQuery                               0x0003c737   Thumb Code    58  os_mem.o(.text)
    OS_MemInit                               0x0003c771   Thumb Code    60  os_mem.o(.text)
    OSTimeDly                                0x0003c7b5   Thumb Code    82  os_time.o(.text)
    OSTimeDlyHMSM                            0x0003c807   Thumb Code   150  os_time.o(.text)
    OSTimeDlyResume                          0x0003c89d   Thumb Code   116  os_time.o(.text)
    OSTimeGet                                0x0003c911   Thumb Code    18  os_time.o(.text)
    OSTimeSet                                0x0003c923   Thumb Code    18  os_time.o(.text)
    OSTaskChangePrio                         0x0003c949   Thumb Code   312  os_task.o(.text)
    OSTaskCreate                             0x0003ca81   Thumb Code   144  os_task.o(.text)
    OSTaskCreateExt                          0x0003cb11   Thumb Code   178  os_task.o(.text)
    OSTaskDel                                0x0003cbc3   Thumb Code   296  os_task.o(.text)
    OSTaskDelReq                             0x0003cceb   Thumb Code    84  os_task.o(.text)
    OSTaskResume                             0x0003cd3f   Thumb Code   172  os_task.o(.text)
    OSTaskStkChk                             0x0003cdeb   Thumb Code   118  os_task.o(.text)
    OSTaskSuspend                            0x0003ce61   Thumb Code   142  os_task.o(.text)
    OSTaskQuery                              0x0003ceef   Thumb Code    68  os_task.o(.text)
    OSSemAccept                              0x0003cf45   Thumb Code    44  os_sem.o(.text)
    OSSemCreate                              0x0003cf71   Thumb Code    64  os_sem.o(.text)
    OSSemDel                                 0x0003cfb1   Thumb Code   172  os_sem.o(.text)
    OSSemPend                                0x0003d05d   Thumb Code   162  os_sem.o(.text)
    OSSemPost                                0x0003d0ff   Thumb Code    82  os_sem.o(.text)
    OSSemQuery                               0x0003d151   Thumb Code   112  os_sem.o(.text)
    OSQAccept                                0x0003d1cd   Thumb Code    70  os_q.o(.text)
    OSQCreate                                0x0003d213   Thumb Code   128  os_q.o(.text)
    OSQDel                                   0x0003d293   Thumb Code   204  os_q.o(.text)
    OSQFlush                                 0x0003d35f   Thumb Code    46  os_q.o(.text)
    OSQPend                                  0x0003d38d   Thumb Code   208  os_q.o(.text)
    OSQPost                                  0x0003d45d   Thumb Code   110  os_q.o(.text)
    OSQPostFront                             0x0003d4cb   Thumb Code   112  os_q.o(.text)
    OSQPostOpt                               0x0003d53b   Thumb Code   172  os_q.o(.text)
    OSQQuery                                 0x0003d5e7   Thumb Code   164  os_q.o(.text)
    OS_QInit                                 0x0003d68b   Thumb Code    38  os_q.o(.text)
    pinInit                                  0x0003d6b9   Thumb Code    80  lpc1700pincfg.o(.text)
    pconpInit                                0x0003d709   Thumb Code     8  lpc1700pincfg.o(.text)
    defaultVectorHandle                      0x0003d731   Thumb Code    10  target.o(.text)
    targetInit                               0x0003d73b   Thumb Code   354  target.o(.text)
    zyIfInit                                 0x0003d8d5   Thumb Code     4  zy_if.o(.text)
    zyReset                                  0x0003d8d9   Thumb Code    50  zy_if.o(.text)
    zyIrqDisable                             0x0003d90b   Thumb Code     8  zy_if.o(.text)
    zyIrqEnable                              0x0003d913   Thumb Code     8  zy_if.o(.text)
    zyIsrSet                                 0x0003d91b   Thumb Code   174  zy_if.o(.text)
    __s_zyIsrClr                             0x0003d9c9   Thumb Code   172  zy_if.o(.text)
    __s_zyIsrDisable                         0x0003da75   Thumb Code   152  zy_if.o(.text)
    zyIsrEnable                              0x0003db0d   Thumb Code   142  zy_if.o(.text)
    zyHeapMalloc                             0x0003db9b   Thumb Code    26  zy_if.o(.text)
    zyHeapFree                               0x0003dbb5   Thumb Code    22  zy_if.o(.text)
    zyThreadCreate                           0x0003dbcb   Thumb Code    72  zy_if.o(.text)
    zyThreadGetCurId                         0x0003dc13   Thumb Code     6  zy_if.o(.text)
    zyThreadDel                              0x0003dc19   Thumb Code    70  zy_if.o(.text)
    zyThreadSuspendSelf                      0x0003dc5f   Thumb Code    12  zy_if.o(.text)
    zyThreadResume                           0x0003dc6b   Thumb Code    18  zy_if.o(.text)
    zyThreadSuspendCheck                     0x0003dc7d   Thumb Code    24  zy_if.o(.text)
    zyThreadDelay                            0x0003dc95   Thumb Code    46  zy_if.o(.text)
    zySemCreate                              0x0003dcc3   Thumb Code    34  zy_if.o(.text)
    zySemDel                                 0x0003dce5   Thumb Code    62  zy_if.o(.text)
    zySemAccept                              0x0003dd23   Thumb Code    12  zy_if.o(.text)
    zySemPend                                0x0003dd2f   Thumb Code    88  zy_if.o(.text)
    zySemPost                                0x0003dd87   Thumb Code    56  zy_if.o(.text)
    zyMsgCreate                              0x0003ddbf   Thumb Code   122  zy_if.o(.text)
    zyMsgDel                                 0x0003de39   Thumb Code    40  zy_if.o(.text)
    zyMsgAccept                              0x0003de61   Thumb Code    58  zy_if.o(.text)
    zyMsgPend                                0x0003de9b   Thumb Code   130  zy_if.o(.text)
    zyMsgPost                                0x0003df1d   Thumb Code   150  zy_if.o(.text)
    _sys_exit                                0x0003dfb3   Thumb Code     4  rt_sys_c.o(.text)
    _ttywrch                                 0x0003dfb7   Thumb Code     2  rt_sys_c.o(.text)
    _sys_open                                0x0003dfb9   Thumb Code     8  rt_sys_c.o(.text)
    _sys_close                               0x0003dfc1   Thumb Code     8  rt_sys_c.o(.text)
    _sys_read                                0x0003dfc9   Thumb Code    10  rt_sys_c.o(.text)
    _sys_write                               0x0003dfd3   Thumb Code    10  rt_sys_c.o(.text)
    _sys_ensure                              0x0003dfdd   Thumb Code     6  rt_sys_c.o(.text)
    _sys_flen                                0x0003dfe3   Thumb Code     8  rt_sys_c.o(.text)
    _sys_seek                                0x0003dfeb   Thumb Code     8  rt_sys_c.o(.text)
    _sys_istty                               0x0003dff3   Thumb Code     8  rt_sys_c.o(.text)
    _sys_tmpnam                              0x0003dffb   Thumb Code     6  rt_sys_c.o(.text)
    _sys_command_string                      0x0003e001   Thumb Code     6  rt_sys_c.o(.text)
    clock                                    0x0003e007   Thumb Code     4  rt_sys_c.o(.text)
    time                                     0x0003e00b   Thumb Code    24  rt_sys_c.o(.text)
    remove                                   0x0003e023   Thumb Code     8  rt_sys_c.o(.text)
    rename                                   0x0003e02b   Thumb Code     8  rt_sys_c.o(.text)
    system                                   0x0003e033   Thumb Code     6  rt_sys_c.o(.text)
    pcEncodAmount                            0x0003e039   Thumb Code    88  taskuart0device.o(.text)
    pcPost                                   0x0003e563   Thumb Code    26  taskuart0device.o(.text)
    pcShcReq                                 0x0003f37b   Thumb Code    26  taskuart0device.o(.text)
    SystemDatasBroadcast                     0x00041063   Thumb Code   110  taskuart0device.o(.text)
    sysBoardCastCheckTask                    0x000410d1   Thumb Code    48  taskuart0device.o(.text)
    enterPCControl                           0x00041101   Thumb Code   226  taskuart0device.o(.text)
    pcControlInit                            0x000411e3   Thumb Code    76  taskuart0device.o(.text)
    vmcPost                                  0x0004122f   Thumb Code   170  taskuart0device.o(.text)
    mainTaskPollPC                           0x000412d9   Thumb Code   262  taskuart0device.o(.text)
    OSInitHookBegin                          0x000413ed   Thumb Code     2  osinithookbegin.o(.text)
    OSInitHookEnd                            0x000413ef   Thumb Code     2  osinithookend.o(.text)
    OSTaskCreateHook                         0x000413f1   Thumb Code     4  ostaskcreatehook.o(.text)
    OSTaskDelHook                            0x000413f5   Thumb Code     4  ostaskdelhook.o(.text)
    OSTaskIdleHook                           0x000413f9   Thumb Code     2  ostaskidlehook.o(.text)
    OSTaskStatHook                           0x000413fb   Thumb Code     2  ostaskstathook.o(.text)
    OSTaskSwHook                             0x000413fd   Thumb Code     2  ostaskswhook.o(.text)
    OSTCBInitHook                            0x000413ff   Thumb Code     4  ostcbinithook.o(.text)
    OSTimeTickHook                           0x00041403   Thumb Code     2  ostimetickhook.o(.text)
    __semihosting$guard                      0x00041405   Thumb Code     0  use_no_semi.o(.text)
    __use_no_semihosting_swi                 0x00041405   Thumb Code     2  use_no_semi.o(.text)
    malloc                                   0x00041407   Thumb Code   100  h1_alloc.o(.text)
    free                                     0x0004146b   Thumb Code    78  h1_free.o(.text)
    __c89vsprintf                            0x000414b9   Thumb Code    32  c89vsprintf.o(.text)
    __2sprintf                               0x000414dd   Thumb Code    38  __2sprintf.o(.text)
    __2snprintf                              0x00041509   Thumb Code    50  __2snprintf.o(.text)
    _printf_pre_padding                      0x00041541   Thumb Code    44  _printf_pad.o(.text)
    _printf_post_padding                     0x0004156d   Thumb Code    36  _printf_pad.o(.text)
    _printf_str                              0x00041591   Thumb Code    82  _printf_str.o(.text)
    _printf_int_dec                          0x000415e5   Thumb Code    98  _printf_dec.o(.text)
    _printf_longlong_hex                     0x00041659   Thumb Code    92  _printf_hex_int_ll_ptr.o(.text)
    _printf_int_hex                          0x000416b5   Thumb Code    28  _printf_hex_int_ll_ptr.o(.text)
    _printf_ll_hex                           0x000416d1   Thumb Code    12  _printf_hex_int_ll_ptr.o(.text)
    _printf_hex_ptr                          0x000416dd   Thumb Code    18  _printf_hex_int_ll_ptr.o(.text)
    __printf                                 0x000416f5   Thumb Code   406  __printf_flags_ss_wp.o(.text)
    strncat                                  0x00041891   Thumb Code    36  strncat.o(.text)
    strstr                                   0x000418b5   Thumb Code    36  strstr.o(.text)
    strcpy                                   0x000418d9   Thumb Code    72  strcpy.o(.text)
    strlen                                   0x00041921   Thumb Code    62  strlen.o(.text)
    strncmp                                  0x0004195f   Thumb Code   140  strncmp.o(.text)
    strcat                                   0x000419eb   Thumb Code    24  strcat.o(.text)
    __aeabi_memcpy                           0x00041a03   Thumb Code     0  rt_memcpy_v6.o(.text)
    __rt_memcpy                              0x00041a03   Thumb Code   138  rt_memcpy_v6.o(.text)
    _memcpy_lastbytes                        0x00041a69   Thumb Code     0  rt_memcpy_v6.o(.text)
    __aeabi_memcpy4                          0x00041a8d   Thumb Code     0  rt_memcpy_w.o(.text)
    __aeabi_memcpy8                          0x00041a8d   Thumb Code     0  rt_memcpy_w.o(.text)
    __rt_memcpy_w                            0x00041a8d   Thumb Code   100  rt_memcpy_w.o(.text)
    _memcpy_lastbytes_aligned                0x00041ad5   Thumb Code     0  rt_memcpy_w.o(.text)
    __aeabi_memset                           0x00041af1   Thumb Code    16  aeabi_memset.o(.text)
    __aeabi_memclr                           0x00041b01   Thumb Code     0  rt_memclr.o(.text)
    __rt_memclr                              0x00041b01   Thumb Code    68  rt_memclr.o(.text)
    _memset                                  0x00041b05   Thumb Code     0  rt_memclr.o(.text)
    __aeabi_memclr4                          0x00041b45   Thumb Code     0  rt_memclr_w.o(.text)
    __aeabi_memclr8                          0x00041b45   Thumb Code     0  rt_memclr_w.o(.text)
    __rt_memclr_w                            0x00041b45   Thumb Code    78  rt_memclr_w.o(.text)
    _memset_w                                0x00041b49   Thumb Code     0  rt_memclr_w.o(.text)
    strncpy                                  0x00041b93   Thumb Code    86  strncpy.o(.text)
    mktime                                   0x00041c1f   Thumb Code   354  mktime.o(.text)
    __rt_heap_descriptor                     0x00041d89   Thumb Code    12  rt_heap_descriptor_intlibspace.o(.text)
    __use_no_heap                            0x00041d95   Thumb Code     2  hguard.o(.text)
    __heap$guard                             0x00041d97   Thumb Code     2  hguard.o(.text)
    _terminate_user_alloc                    0x00041d99   Thumb Code     2  init_alloc.o(.text)
    _init_user_alloc                         0x00041d9b   Thumb Code     2  init_alloc.o(.text)
    __Heap_Full                              0x00041d9d   Thumb Code    34  init_alloc.o(.text)
    __Heap_Broken                            0x00041dbf   Thumb Code     6  init_alloc.o(.text)
    _init_alloc                              0x00041dc5   Thumb Code    94  init_alloc.o(.text)
    __Heap_Initialize                        0x00041e23   Thumb Code    10  h1_init.o(.text)
    __Heap_DescSize                          0x00041e2d   Thumb Code     4  h1_init.o(.text)
    _printf_truncate_signed                  0x00041e31   Thumb Code    18  _printf_truncate.o(.text)
    _printf_truncate_unsigned                0x00041e43   Thumb Code    18  _printf_truncate.o(.text)
    _printf_int_common                       0x00041e55   Thumb Code   180  _printf_intcommon.o(.text)
    _printf_charcount                        0x00041f09   Thumb Code    42  _printf_charcount.o(.text)
    _printf_char_common                      0x00041f3f   Thumb Code    32  _printf_char_common.o(.text)
    _sputc                                   0x00041f65   Thumb Code    10  _sputc.o(.text)
    _snputc                                  0x00041f6f   Thumb Code    16  _snputc.o(.text)
    _printf_cs_common                        0x00041f7f   Thumb Code    20  _printf_char.o(.text)
    _printf_char                             0x00041f93   Thumb Code    16  _printf_char.o(.text)
    _printf_string                           0x00041fa3   Thumb Code     8  _printf_char.o(.text)
    _printf_wctomb                           0x00041fad   Thumb Code   182  _printf_wctomb.o(.text)
    _printf_longlong_dec                     0x00042069   Thumb Code   104  _printf_longlong_dec.o(.text)
    _printf_longlong_oct                     0x000420e1   Thumb Code    76  _printf_oct_int_ll.o(.text)
    _printf_int_oct                          0x0004212d   Thumb Code    24  _printf_oct_int_ll.o(.text)
    _printf_ll_oct                           0x00042145   Thumb Code    12  _printf_oct_int_ll.o(.text)
    __rt_udiv10                              0x00042159   Thumb Code    16  rtudiv10.o(.text)
    __user_libspace                          0x00042169   Thumb Code     8  libspace.o(.text)
    __user_perproc_libspace                  0x00042169   Thumb Code     0  libspace.o(.text)
    __user_perthread_libspace                0x00042169   Thumb Code     0  libspace.o(.text)
    __Heap_ProvideMemory                     0x00042171   Thumb Code    50  h1_extend.o(.text)
    _ll_udiv10                               0x000421a3   Thumb Code   138  lludiv10.o(.text)
    __lib_sel_fp_printf                      0x0004222d   Thumb Code     2  _printf_fp_dec.o(.text)
    _printf_fp_dec_real                      0x000423d3   Thumb Code   616  _printf_fp_dec.o(.text)
    _printf_lcs_common                       0x0004263b   Thumb Code    20  _printf_wchar.o(.text)
    _printf_wchar                            0x0004264f   Thumb Code    16  _printf_wchar.o(.text)
    _printf_wstring                          0x0004265f   Thumb Code     8  _printf_wchar.o(.text)
    _wcrtomb                                 0x00042667   Thumb Code    64  _wcrtomb.o(.text)
    __rt_SIGRTMEM                            0x000426a7   Thumb Code    14  defsig_rtmem_outer.o(.text)
    __rt_heap_escrow                         0x000426b5   Thumb Code    20  heapauxa.o(.text)
    __rt_heap_expand                         0x000426c9   Thumb Code    46  heapauxa.o(.text)
    __user_setup_stackheap                   0x00042701   Thumb Code    74  sys_stackheap_outer.o(.text)
    __rt_ctype_table                         0x0004274d   Thumb Code    16  rt_ctype_table.o(.text)
    __rt_locale                              0x0004275d   Thumb Code    12  rt_locale_intlibspace.o(.text)
    _printf_fp_infnan                        0x00042769   Thumb Code   108  _printf_fp_infnan.o(.text)
    _btod_etento                             0x000427e5   Thumb Code   230  bigflt0.o(.text)
    exit                                     0x000428d1   Thumb Code    12  exit.o(.text)
    __sig_exit                               0x000428dd   Thumb Code    10  defsig_exit.o(.text)
    __rt_SIGRTMEM_inner                      0x000428e9   Thumb Code    20  defsig_rtmem_inner.o(.text)
    __default_signal_display                 0x00042935   Thumb Code    50  defsig_general.o(.text)
    strcmp                                   0x00042969   Thumb Code   128  strcmpv7m.o(.text)
    __rt_fp_status_addr                      0x000429e9   Thumb Code    12  rt_fp_status_addr_intlibspace.o(.text)
    _btod_d2e                                0x000429f5   Thumb Code    62  btod.o(CL$$btod_d2e)
    _d2e_denorm_low                          0x00042a33   Thumb Code    70  btod.o(CL$$btod_d2e_denorm_low)
    _d2e_norm_op1                            0x00042a79   Thumb Code    96  btod.o(CL$$btod_d2e_norm_op1)
    __btod_div_common                        0x00042ad9   Thumb Code   696  btod.o(CL$$btod_div_common)
    _e2e                                     0x00042e11   Thumb Code   198  btod.o(CL$$btod_e2e)
    _btod_ediv                               0x00042ed7   Thumb Code    40  btod.o(CL$$btod_ediv)
    _btod_emul                               0x00042eff   Thumb Code    40  btod.o(CL$$btod_emul)
    __btod_mult_common                       0x00042f27   Thumb Code   580  btod.o(CL$$btod_mult_common)
    __ARM_fpclassify                         0x0004316b   Thumb Code    40  fpclassify.o(i.__ARM_fpclassify)
    _get_lc_numeric                          0x00043195   Thumb Code    44  lc_numeric_c.o(locale$$code)
    _get_lc_ctype                            0x000431c1   Thumb Code    44  lc_ctype_c.o(locale$$code)
    __user_initial_stackheap                 0x000431ed   Thumb Code     0  rt_sys_s.o(rt_sys)
    _fp_init                                 0x000431f5   Thumb Code    14  fpinit.o(x$fpl$fpinit)
    __fplib_config_pureend_doubles           0x00043201   Thumb Code     0  fpinit.o(x$fpl$fpinit)
    _printf_fp_dec                           0x00043203   Thumb Code     4  printf1.o(x$fpl$printf1)
    __I$use$fp                               0x00043207   Thumb Code     0  usenofp.o(x$fpl$usenofp)
    PasswordMenuList                         0x00043258   Data          96  maintain.o(.constdata)
    OKMenuList                               0x000432b8   Data          96  maintain.o(.constdata)
    UserMaintainMenuList                     0x00043318   Data         192  maintain.o(.constdata)
    UserMaintainErrorMenuList                0x000433d8   Data        1200  maintain.o(.constdata)
    LogMaintainMenuList                      0x00043888   Data         264  maintain.o(.constdata)
    LogTransMenuList                         0x00043990   Data         456  maintain.o(.constdata)
    UserTradeMenuList                        0x00043b58   Data         504  maintain.o(.constdata)
    RtcMenuList                              0x00043d50   Data         216  maintain.o(.constdata)
    ErrorStateTo                             0x00043e28   Data          72  maintain.o(.constdata)
    UserChoose                               0x00043e70   Data          96  maintain.o(.constdata)
    UserUboxPCMenuList                       0x00043ed0   Data         264  maintain.o(.constdata)
    UserTraceMenuList                        0x00043fd8   Data         336  maintain.o(.constdata)
    MaintainMenuList                         0x00044128   Data         144  maintain.o(.constdata)
    SysMenuList                              0x000441b8   Data        1368  maintain.o(.constdata)
    DEVICESELFCHECKBMP                       0x00044710   Data         200  maintain.o(.constdata)
    DEVICESELFCHECKPIC                       0x000447d8   Data           8  maintain.o(.constdata)
    DEVICEMANAGEBMP                          0x000447e0   Data         200  maintain.o(.constdata)
    DEVICEMANAGEPIC                          0x000448a8   Data           8  maintain.o(.constdata)
    VENDINMANAGEBMP                          0x000448b0   Data         200  maintain.o(.constdata)
    VENDINGMANAGEPIC                         0x00044978   Data           8  maintain.o(.constdata)
    VENDINGBMP                               0x00044980   Data         200  maintain.o(.constdata)
    VENDINGPIC                               0x00044a48   Data           8  maintain.o(.constdata)
    SelfCheckMenuList                        0x00044a50   Data         360  maintain.o(.constdata)
    SelfCheckText                            0x00044bb8   Data          48  maintain.o(.constdata)
    MAINTAINPASSWORD                         0x00044be8   Data           6  common.o(.constdata)
    ADMINPASSWORD                            0x00044bee   Data           8  common.o(.constdata)
    MECHINEDEVICETYPE                        0x00044bf6   Data           6  common.o(.constdata)
    ui_aisle_admin                           0x00044bfc   Data        1368  channel.o(.constdata)
    LogoLiftTable                            0x0004515c   Data         744  lifttable.o(.constdata)
    ui_acdc_man                              0x00045444   Data         408  acdc.o(.constdata)
    huodao_addr_8_8                          0x0004564e   Data          80  channelapi.o(.constdata)
    huodao_addr_8_10                         0x0004569e   Data          80  channelapi.o(.constdata)
    cabinet1_page                            0x000456ee   Data           8  channelapi.o(.constdata)
    cabinet2_page                            0x000456f6   Data           8  channelapi.o(.constdata)
    cabinet1_page_bak                        0x000456fe   Data           8  channelapi.o(.constdata)
    cabinet2_page_bak                        0x00045706   Data           8  channelapi.o(.constdata)
    st_hefan_cabinet                         0x00045738   Data         816  hefanguiapi.o(.constdata)
    fsBillInfo                               0x00045d54   Data          18  fs_billchanger.o(.constdata)
    fs_code_hex                              0x00045d66   Data          10  fs_billchanger.o(.constdata)
    STX                                      0x00045d70   Data           1  fs_billchanger.o(.constdata)
    ETX                                      0x00045d71   Data           1  fs_billchanger.o(.constdata)
    ENQ                                      0x00045d72   Data           1  fs_billchanger.o(.constdata)
    ACK                                      0x00045d73   Data           1  fs_billchanger.o(.constdata)
    NAK                                      0x00045d74   Data           1  fs_billchanger.o(.constdata)
    DLE                                      0x00045d75   Data           1  fs_billchanger.o(.constdata)
    FS                                       0x00045d76   Data           1  fs_billchanger.o(.constdata)
    IndexASCII16_TAB                         0x00045dbe   Data          93  lcd.o(.constdata)
    ASCII16_TAB                              0x00045e1b   Data        1536  lcd.o(.constdata)
    IndexChinese16Dot                        0x0004641b   Data         765  lcd.o(.constdata)
    CHINESE16_TAB                            0x00046718   Data       12224  lcd.o(.constdata)
    IndexChinese32Dot                        0x000496d8   Data          21  lcd.o(.constdata)
    CHINESE32_TAB                            0x000496ed   Data        1280  lcd.o(.constdata)
    EasivendLOGO                             0x00049bed   Data         775  lcd.o(.constdata)
    EasivendLOGO192_96                       0x00049ef4   Data        2304  lcd.o(.constdata)
    PingtuLOGO                               0x0004a7f4   Data         775  lcd.o(.constdata)
    TuerqiLOGO                               0x0004aafb   Data         775  lcd.o(.constdata)
    MalaysiaLOGO                             0x0004ae02   Data         775  lcd.o(.constdata)
    ThankyouPic2                             0x0004b109   Data        3840  lcd.o(.constdata)
    SpecialPic_16_16_font                    0x0004c009   Data         160  lcd.o(.constdata)
    SpecialPic_32_32_font                    0x0004c0a9   Data         640  lcd.o(.constdata)
    NumberIndex                              0x0004c32a   Data         198  lcd.o(.constdata)
    Number_8_16_Normalfont                   0x0004c3f0   Data        1584  lcd.o(.constdata)
    Number_8_16_Boldfont                     0x0004ca20   Data        1568  lcd.o(.constdata)
    Number_16_32_Normalfont                  0x0004d040   Data        5120  lcd.o(.constdata)
    Number_24_48_Normalfont                  0x0004e440   Data       11520  lcd.o(.constdata)
    KEY_ROW0_TABLE                           0x00051140   Data           8  key.o(.constdata)
    KEY_ROW1_TABLE                           0x00051148   Data           8  key.o(.constdata)
    OSMapTbl                                 0x00051150   Data           8  os_core.o(.constdata)
    OSUnMapTbl                               0x00051158   Data         256  os_core.o(.constdata)
    _monlen                                  0x0005129c   Data          12  _monlen.o(.constdata)
    Region$$Table$$Base                      0x000564a0   Number         0  anon$$obj.o(Region$$Table)
    Region$$Table$$Limit                     0x000564e0   Number         0  anon$$obj.o(Region$$Table)
    __ctype                                  0x00056509   Data           0  lc_ctype_c.o(locale$$data)
    RTCData                                  0x10000000   Data           8  main.o(.data)
    vmRTC                                    0x10000008   Data           8  main.o(.data)
    globalSys                                0x10000010   Data           1  main.o(.data)
    ChannelNum                               0x10000014   Data           3  business.o(.data)
    BinNum                                   0x10000017   Data           2  business.o(.data)
    channelInput                             0x10000019   Data           1  business.o(.data)
    channelMode                              0x1000001a   Data           1  business.o(.data)
    vmcStatus                                0x1000001b   Data           1  business.o(.data)
    vmcChangeLow                             0x1000001c   Data           1  business.o(.data)
    g_coinAmount                             0x10000020   Data           4  business.o(.data)
    g_billAmount                             0x10000024   Data           4  business.o(.data)
    g_holdValue                              0x10000028   Data           4  business.o(.data)
    g_readerAmount                           0x1000002c   Data           4  business.o(.data)
    vmcColumn                                0x10000030   Data           2  business.o(.data)
    vmcPrice                                 0x10000034   Data           4  business.o(.data)
    transMul                                 0x10000038   Data           1  business.o(.data)
    hefangMode                               0x10000039   Data           1  business.o(.data)
    MoneyMaxin                               0x1000003c   Data           4  business.o(.data)
    PriceMaxin                               0x10000040   Data           4  business.o(.data)
    GOCCHECKTIMEOUT                          0x10000048   Data           4  business.o(.data)
    UserMaintainMainMenu                     0x10000050   Data           8  maintain.o(.data)
    LogMaintainMainMenu                      0x10000058   Data           8  maintain.o(.data)
    UserTradeMainMenu                        0x10000060   Data           8  maintain.o(.data)
    MaintainMainMenu                         0x10000068   Data           8  maintain.o(.data)
    SelfCheckMenu                            0x10000070   Data           8  maintain.o(.data)
    ZhIndex                                  0x10000078   Data           1  common.o(.data)
    g_Ubox_Index                             0x10000079   Data           1  common.o(.data)
    g_SIMPLEUbox_Index                       0x1000007a   Data           1  common.o(.data)
    g_DeviceSem                              0x1000007c   Data           4  common.o(.data)
    g_BillMoneyQ                             0x10000080   Data           4  common.o(.data)
    g_BillMoneyMail                          0x10000084   Data           4  common.o(.data)
    g_BillMoneyBackMail                      0x10000088   Data           4  common.o(.data)
    g_CoinMoneyQ                             0x1000008c   Data           4  common.o(.data)
    g_CoinMoneyMail                          0x10000090   Data           4  common.o(.data)
    g_CoinMoneyBackMail                      0x10000094   Data           4  common.o(.data)
    g_ChangeMoneyMail                        0x10000098   Data           4  common.o(.data)
    g_ChangeBackMoneyMail                    0x1000009c   Data           4  common.o(.data)
    g_ReaderMoneyMail                        0x100000a0   Data           4  common.o(.data)
    g_ReaderBackMoneyMail                    0x100000a4   Data           4  common.o(.data)
    g_ReaderBackCmdMail                      0x100000a8   Data           4  common.o(.data)
    g_DeviceStateMail                        0x100000ac   Data           4  common.o(.data)
    g_DeviceStateBackMail                    0x100000b0   Data           4  common.o(.data)
    g_ChannelMail                            0x100000b4   Data           4  common.o(.data)
    g_ChannelBackMail                        0x100000b8   Data           4  common.o(.data)
    g_LiftTableMail                          0x100000bc   Data           4  common.o(.data)
    g_LiftTableBackMail                      0x100000c0   Data           4  common.o(.data)
    g_ACDCMail                               0x100000c4   Data           4  common.o(.data)
    g_ACDCBackMail                           0x100000c8   Data           4  common.o(.data)
    g_HeFanGuiMail                           0x100000cc   Data           4  common.o(.data)
    g_HeFanGuiBackMail                       0x100000d0   Data           4  common.o(.data)
    CardStatePack                            0x100000d4   Data           1  common.o(.data)
    g_PCMail                                 0x100000d8   Data           4  common.o(.data)
    g_PCBackMail                             0x100000dc   Data           4  common.o(.data)
    g_Ubox_VMCTOPCQ                          0x100000e0   Data           4  common.o(.data)
    g_Ubox_VMCTOPCBackCMail                  0x100000e4   Data           4  common.o(.data)
    g_Ubox_PCTOVMCQ                          0x100000e8   Data           4  common.o(.data)
    g_Ubox_PCTOVMCBackQ                      0x100000ec   Data           4  common.o(.data)
    g_SIMPLEUbox_PCTOVMCQ                    0x100000f0   Data           4  common.o(.data)
    g_SIMPLEUbox_PCTOVMCBackCMail            0x100000f4   Data           4  common.o(.data)
    g_SIMPLEUbox_VMCTOPCQ                    0x100000f8   Data           4  common.o(.data)
    g_SIMPLEUbox_VMCTOPCBackCMail            0x100000fc   Data           4  common.o(.data)
    g_KEYMail                                0x10000100   Data           4  common.o(.data)
    g_KEYBackMail                            0x10000104   Data           4  common.o(.data)
    MsgKEYBackPack                           0x10000108   Data           2  common.o(.data)
    g_XMTMail                                0x1000010c   Data           4  common.o(.data)
    g_XMTBackMail                            0x10000110   Data           4  common.o(.data)
    MsgXMTPack                               0x10000114   Data           4  common.o(.data)
    g_FSBillRecyclerMail                     0x10000118   Data           4  common.o(.data)
    g_FSBillRecyclerBackMail                 0x1000011c   Data           4  common.o(.data)
    BUSINESS                                 0x10000120   Data         240  language.o(.data)
    BUSINESSERROR                            0x10000210   Data         552  language.o(.data)
    BUSINESSDEAL                             0x10000438   Data         480  language.o(.data)
    BUSINESSCHANGE                           0x10000618   Data         120  language.o(.data)
    FailFlag                                 0x10000690   Data           1  lifttable.o(.data)
    LIFTTABLETIMER                           0x10000694   Data           4  lifttable.o(.data)
    billEnable                               0x1000069f   Data           1  checkdevicestate.o(.data)
    coinEnable                               0x100006a0   Data           1  checkdevicestate.o(.data)
    scaleError                               0x100006a1   Data           1  checkdevicestate.o(.data)
    weihuMode                                0x100006a2   Data           1  checkdevicestate.o(.data)
    HpValueFlag                              0x100006a7   Data           1  changerapi.o(.data)
    ChaXunRst                                0x100006aa   Data           2  hefanguiapi.o(.data)
    MDBCONVERSATIONWAITACKTIMEOUT            0x100006b0   Data           4  mdb_uart2.o(.data)
    EVBCONVERSATIONWAITACKTIMEOUT            0x100006b4   Data           4  evb_uart2.o(.data)
    UART3RECVACKMSGTIMEOUT                   0x100006b8   Data           4  evb_uart2.o(.data)
    EvbAckFromDevice                         0x100006bc   Data           8  evb_uart2.o(.data)
    MdbBillErr                               0x100006c6   Data           8  billaccepter.o(.data)
    NowCoinDevState                          0x100006ce   Data           1  coinaccepter .o(.data)
    chSn                                     0x100006d1   Data           1  channeldriver.o(.data)
    stChannelErrForm                         0x100006d2   Data           4  channeldriver.o(.data)
    zh_pc_err                                0x100006d9   Data           1  zhihuipc.o(.data)
    decimalPlaces                            0x100006da   Data           1  ubprotocol.o(.data)
    GoodsRev                                 0x100006db   Data           1  ubprotocol.o(.data)
    GoodsSN                                  0x100006dc   Data           1  ubprotocol.o(.data)
    vmc_gprs_pc_state                        0x100006df   Data           1  vmc_gprs_pc.o(.data)
    hdstart                                  0x100006e0   Data           1  ubprotocol_simple.o(.data)
    hdend                                    0x100006e1   Data           1  ubprotocol_simple.o(.data)
    SelectKeySN                              0x100006e2   Data           6  selectkey.o(.data)
    SelectKeyNo                              0x100006e8   Data           6  selectkey.o(.data)
    SelectKeycom                             0x100006ee   Data           8  selectkey.o(.data)
    fs_timer                                 0x100006fc   Data           4  fs_billchanger.o(.data)
    fs_reqTimer                              0x10000700   Data           4  fs_billchanger.o(.data)
    fs_taskTimer                             0x10000704   Data           4  fs_billchanger.o(.data)
    fsStatus                                 0x1000071c   Data           8  fs_billchanger.o(.data)
    MdbStatus                                0x10000724   Data           1  uart2.o(.data)
    Uart2_RIndex                             0x10000726   Data           1  uart2.o(.data)
    Uart2_FIndex                             0x10000727   Data           1  uart2.o(.data)
    Uart2_Mode                               0x10000728   Data           1  uart2.o(.data)
    Uart0RxdHead                             0x10000729   Data           1  uart0.o(.data)
    Uart0RxdTail                             0x1000072a   Data           1  uart0.o(.data)
    Uart1RxdHead                             0x1000072b   Data           1  uart1.o(.data)
    Uart1RxdTail                             0x1000072c   Data           1  uart1.o(.data)
    Uart3RxdHead                             0x1000072d   Data           1  uart3.o(.data)
    Uart3RxdTail                             0x1000072e   Data           1  uart3.o(.data)
    I2C0_sla                                 0x10000730   Data           1  i2c.o(.data)
    I2C0_suba                                0x10000734   Data           4  i2c.o(.data)
    I2C0_suba_num                            0x10000738   Data           1  i2c.o(.data)
    I2C0_buf                                 0x1000073c   Data           4  i2c.o(.data)
    I2C0_num                                 0x10000740   Data           4  i2c.o(.data)
    I2C0_end                                 0x10000744   Data           1  i2c.o(.data)
    I2C0_suba_en                             0x10000745   Data           1  i2c.o(.data)
    g_Key_Queue                              0x10000748   Data           1  key.o(.data)
    QKey                                     0x1000074c   Data           4  key.o(.data)
    PostValue                                0x10000750   Data           1  key.o(.data)
    KeyBoardStatus                           0x10000751   Data           1  key.o(.data)
    KeyPack                                  0x10000752   Data           3  key.o(.data)
    pcoinIndex                               0x10000758   Data           1  pcoin.o(.data)
    PARALLELPULSECOINACCEPTORDEVICESTATUS    0x10000759   Data           1  pcoin.o(.data)
    SERIALPULSECOINACCEPTORDEVICESTATUS      0x1000075a   Data           1  pcoin.o(.data)
    QPChannel                                0x10000760   Data           4  pcoin.o(.data)
    QSChannel                                0x10000764   Data           4  pcoin.o(.data)
    PostSerialCoinChannel                    0x10000768   Data           8  pcoin.o(.data)
    Tick                                     0x10000770   Data           1  timer.o(.data)
    GPRSWAITTIMEOUT                          0x10000774   Data           4  gprs_uart.o(.data)
    __GuiOsEnterSum                          0x10000778   Data           4  os_cpu_c.o(.data)
    OSCtxSwCtr                               0x1000077c   Data           4  os_core.o(.data)
    OSEventFreeList                          0x10000780   Data           4  os_core.o(.data)
    OSFlagFreeList                           0x10000784   Data           4  os_core.o(.data)
    OSCPUUsage                               0x10000788   Data           1  os_core.o(.data)
    OSIdleCtrMax                             0x1000078c   Data           4  os_core.o(.data)
    OSIdleCtrRun                             0x10000790   Data           4  os_core.o(.data)
    OSStatRdy                                0x10000794   Data           1  os_core.o(.data)
    OSIntNesting                             0x10000795   Data           1  os_core.o(.data)
    OSIntExitY                               0x10000796   Data           1  os_core.o(.data)
    OSLockNesting                            0x10000797   Data           1  os_core.o(.data)
    OSPrioCur                                0x10000798   Data           1  os_core.o(.data)
    OSPrioHighRdy                            0x10000799   Data           1  os_core.o(.data)
    OSRdyGrp                                 0x1000079a   Data           1  os_core.o(.data)
    OSRdyTbl                                 0x1000079b   Data           8  os_core.o(.data)
    OSRunning                                0x100007a3   Data           1  os_core.o(.data)
    OSTaskCtr                                0x100007a4   Data           1  os_core.o(.data)
    OSIdleCtr                                0x100007a8   Data           4  os_core.o(.data)
    OSTCBCur                                 0x100007ac   Data           4  os_core.o(.data)
    OSTCBFreeList                            0x100007b0   Data           4  os_core.o(.data)
    OSTCBHighRdy                             0x100007b4   Data           4  os_core.o(.data)
    OSTCBList                                0x100007b8   Data           4  os_core.o(.data)
    OSMemFreeList                            0x100007bc   Data           4  os_core.o(.data)
    OSQFreeList                              0x100007c0   Data           4  os_core.o(.data)
    OSTime                                   0x100007c4   Data           4  os_core.o(.data)
    pcm_uartClear                            0x100007d0   Data           4  taskuart0device.o(.data)
    pcm_uartGetCh                            0x100007d4   Data           4  taskuart0device.o(.data)
    pcm_uartNoEmpty                          0x100007d8   Data           4  taskuart0device.o(.data)
    pcm_uartPutStr                           0x100007dc   Data           4  taskuart0device.o(.data)
    pcUartMsg                                0x100007e0   Data           4  taskuart0device.o(.data)
    pcm_vmc_event                            0x100007e4   Data           4  taskuart0device.o(.data)
    vmc_pcm_event                            0x100007e8   Data           4  taskuart0device.o(.data)
    SystemPara                               0x100007f0   Data         200  main.o(.bss)
    UserPara                                 0x100008b8   Data         134  main.o(.bss)
    stDevValue                               0x10000940   Data         312  main.o(.bss)
    Timer                                    0x10000a78   Data          18  main.o(.bss)
    LogPara                                  0x10000a8c   Data         208  main.o(.bss)
    LogParaDetail                            0x10000b5c   Data         132  main.o(.bss)
    selectKey                                0x10000be0   Data          12  main.o(.bss)
    BillMoneyQ                               0x100047ec   Data          12  common.o(.bss)
    CoinMoneyQ                               0x100047f8   Data         160  common.o(.bss)
    MsgAccepterPack                          0x10004898   Data         192  common.o(.bss)
    DeviceStatePack                          0x10004958   Data          48  common.o(.bss)
    DeviceStateBusiness                      0x10004988   Data          48  common.o(.bss)
    ZhSizeQ                                  0x100049b8   Data          32  common.o(.bss)
    UboxSizeQ                                0x100049d8   Data          28  common.o(.bss)
    PCTOVMCSizeQ                             0x100049f4   Data          28  common.o(.bss)
    PCTOVMCBackSizeQ                         0x10004a10   Data          28  common.o(.bss)
    MsgUboxPack                              0x10004a2c   Data         784  common.o(.bss)
    SIMPLEUUboxSizeQ                         0x10004d3c   Data          28  common.o(.bss)
    SIMPLEUUboxVMCTOPCQ                      0x10004d58   Data          28  common.o(.bss)
    MsgSIMPLEUboxPack                        0x10004d74   Data         126  common.o(.bss)
    MsgKEYPack                               0x10004df2   Data          16  common.o(.bss)
    MsgFSBillRecyclerPack                    0x10004e04   Data          16  common.o(.bss)
    stMacSn                                  0x10004e14   Data          20  logapi.o(.bss)
    stHuodaoKaoji                            0x10004e28   Data         324  channelapi.o(.bss)
    stGprsStruct                             0x10004f6c   Data          52  gprsapi.o(.bss)
    nBillvalue                               0x10004fa0   Data          64  billaccepter.o(.bss)
    nCoinvalue                               0x10004fe0   Data          64  coinaccepter .o(.bss)
    MdbCoinErr                               0x10005020   Data          10  coinaccepter .o(.bss)
    GetAckFromDevice                         0x1000502a   Data         128  lifttabledriver.o(.bss)
    stLiftTable                              0x100050aa   Data          28  lifttabledriver.o(.bss)
    stEvbHp                                  0x100050c8   Data          60  hopperdriver.o(.bss)
    trade_cache_head                         0x10005104   Data          10  vmc_gprs_pc.o(.bss)
    evbbuf2                                  0x1000510e   Data          20  selectkey.o(.bss)
    selKey                                   0x10005122   Data          13  selectkey.o(.bss)
    XMTMsgBuf                                0x10005130   Data         255  xmt.o(.bss)
    sysXMTMission                            0x10005230   Data          56  xmt.o(.bss)
    HeFanGuiRecvAckBuf                       0x10005268   Data         128  hefangui.o(.bss)
    Uart2_RdBuf                              0x100052e8   Data          36  uart2.o(.bss)
    Uart0RevBuff                             0x1000530c   Data         128  uart0.o(.bss)
    Uart3RevBuff                             0x1000538c   Data         256  uart3.o(.bss)
    KeyValueQ                                0x1000548c   Data          12  key.o(.bss)
    PCoinChannel                             0x10005498   Data          80  pcoin.o(.bss)
    SCoinChannel                             0x100054e8   Data          32  pcoin.o(.bss)
    PostParallelCoinCh                       0x10005508   Data          20  pcoin.o(.bss)
    OSEventTbl                               0x1000551c   Data        1088  os_core.o(.bss)
    OSFlagTbl                                0x1000595c   Data         180  os_core.o(.bss)
    OSTaskStatStk                            0x10005a10   Data        1024  os_core.o(.bss)
    OSTaskIdleStk                            0x10005e10   Data        1024  os_core.o(.bss)
    OSTCBPrioTbl                             0x10006210   Data         256  os_core.o(.bss)
    OSTCBTbl                                 0x10006310   Data        1144  os_core.o(.bss)
    OSMemTbl                                 0x10006788   Data         300  os_core.o(.bss)
    OSQTbl                                   0x100068b4   Data         288  os_core.o(.bss)
    PCMSizeQ                                 0x100069d4   Data          20  taskuart0device.o(.bss)
    __libspace_start                         0x100069e8   Data          96  libspace.o(.bss)
    __temporary_stack_top$libspace           0x10006a48   Data           0  libspace.o(.bss)
    vmc_zh_mbox                              0x2007c008   Data         192  common.o(RAM2)
    zh_vmc_mbox                              0x2007c0c8   Data          24  common.o(RAM2)
    stHuodao                                 0x2007c0e0   Data        1632  channelapi.o(RAM2)
    stSubHuodao                              0x2007c740   Data        1632  channelapi.o(RAM2)
    MACData                                  0x2007cda0   Data         100  zhihuiapi.o(RAM2)
    zhihui_msg                               0x2007ce04   Data         532  zhihuiapi.o(RAM2)
    vmc_goods                                0x2007d018   Data          96  zhihuiapi.o(RAM2)
    stHefanCabinet                           0x2007d078   Data        5300  hefanguiapi.o(RAM2)
    stBin                                    0x2007e550   Data         100  colapi.o(RAM2)
    g_msg                                    0x2007e5b4   Data         255  ubprotocol.o(RAM2)
    VPMsgBuf                                 0x2007e6b3   Data         255  ubprotocol.o(RAM2)
    sysVPMission                             0x2007e7b4   Data         612  ubprotocol.o(RAM2)
    sysGoodsMatrix                           0x2007ea18   Data         496  ubprotocol.o(RAM2)
    sysGoodsAttr                             0x2007ec08   Data          60  ubprotocol.o(RAM2)
    SIMPLEg_msg                              0x2007ec44   Data         255  ubprotocol_simple.o(RAM2)
    SIMPLEVPMsgBuf                           0x2007ed43   Data         255  ubprotocol_simple.o(RAM2)
    sysVPMissionSIMPLE                       0x2007ee42   Data         526  ubprotocol_simple.o(RAM2)
    fsRecvMsg                                0x2007f050   Data         524  fs_billchanger.o(RAM2)
    fsSendMsg                                0x2007f25c   Data         524  fs_billchanger.o(RAM2)
    fsBill                                   0x2007f468   Data         112  fs_billchanger.o(RAM2)
    Uart1RevBuff                             0x2007f4d8   Data         256  uart1.o(RAM2)
    vmc_pc_mail                              0x200805d8   Data         105  taskuart0device.o(RAM2)
    pc_vmc_mail                              0x20080641   Data          21  taskuart0device.o(RAM2)
    pcm_msg                                  0x20080656   Data         516  taskuart0device.o(RAM2)



==============================================================================

Memory Map of the image

  Image Entry point : 0x000000cd

  Load Region ROM_LOAD (Base: 0x00000000, Size: 0x00056e04, Max: 0xffffffff, ABSOLUTE, COMPRESSED[0x000569a8])

    Execution Region VECTOR (Base: 0x00000000, Size: 0x000000cc, Max: 0xffffffff, ABSOLUTE)

    Base Addr    Size         Type   Attr      Idx    E Section Name        Object

    0x00000000   0x000000cc   Data   RO         2438    .constdata          vector_table.o


    Execution Region ROM_EXEC (Base: 0x000000cc, Size: 0x00056540, Max: 0xffffffff, ABSOLUTE)

    Base Addr    Size         Type   Attr      Idx    E Section Name        Object

    0x000000cc   0x00000008   Code   RO         3155  * !!!main             c_w.l(__main.o)(c_w.l)
    0x000000d4   0x00000034   Code   RO         3465    !!!scatter          c_w.l(__scatter.o)(c_w.l)
    0x00000108   0x00000064   Code   RO         3463    !!dclz77c           c_w.l(__dclz77c.o)(c_w.l)
    0x0000016c   0x0000001a   Code   RO         3467    !!handler_copy      c_w.l(__scatter_copy.o)(c_w.l)
    0x00000186   0x00000002   PAD
    0x00000188   0x0000001c   Code   RO         3469    !!handler_zi        c_w.l(__scatter_zi.o)(c_w.l)
    0x000001a4   0x00000000   Code   RO         3128    .ARM.Collect$$_printf_percent$$00000000  c_w.l(_printf_percent.o)(c_w.l)
    0x000001a4   0x00000006   Code   RO         3211    .ARM.Collect$$_printf_percent$$00000001  c_w.l(_printf_n.o)(c_w.l)
    0x000001aa   0x00000006   Code   RO         3212    .ARM.Collect$$_printf_percent$$00000002  c_w.l(_printf_p.o)(c_w.l)
    0x000001b0   0x00000006   Code   RO         3216    .ARM.Collect$$_printf_percent$$00000003  c_w.l(_printf_f.o)(c_w.l)
    0x000001b6   0x00000006   Code   RO         3217    .ARM.Collect$$_printf_percent$$00000004  c_w.l(_printf_e.o)(c_w.l)
    0x000001bc   0x00000006   Code   RO         3218    .ARM.Collect$$_printf_percent$$00000005  c_w.l(_printf_g.o)(c_w.l)
    0x000001c2   0x00000006   Code   RO         3219    .ARM.Collect$$_printf_percent$$00000006  c_w.l(_printf_a.o)(c_w.l)
    0x000001c8   0x0000000a   Code   RO         3224    .ARM.Collect$$_printf_percent$$00000007  c_w.l(_printf_ll.o)(c_w.l)
    0x000001d2   0x00000006   Code   RO         3214    .ARM.Collect$$_printf_percent$$00000008  c_w.l(_printf_i.o)(c_w.l)
    0x000001d8   0x00000006   Code   RO         3127    .ARM.Collect$$_printf_percent$$00000009  c_w.l(_printf_d.o)(c_w.l)
    0x000001de   0x00000006   Code   RO         3215    .ARM.Collect$$_printf_percent$$0000000A  c_w.l(_printf_u.o)(c_w.l)
    0x000001e4   0x00000006   Code   RO         3213    .ARM.Collect$$_printf_percent$$0000000B  c_w.l(_printf_o.o)(c_w.l)
    0x000001ea   0x00000006   Code   RO         3126    .ARM.Collect$$_printf_percent$$0000000C  c_w.l(_printf_x.o)(c_w.l)
    0x000001f0   0x00000006   Code   RO         3221    .ARM.Collect$$_printf_percent$$0000000D  c_w.l(_printf_lli.o)(c_w.l)
    0x000001f6   0x00000006   Code   RO         3222    .ARM.Collect$$_printf_percent$$0000000E  c_w.l(_printf_lld.o)(c_w.l)
    0x000001fc   0x00000006   Code   RO         3223    .ARM.Collect$$_printf_percent$$0000000F  c_w.l(_printf_llu.o)(c_w.l)
    0x00000202   0x00000006   Code   RO         3228    .ARM.Collect$$_printf_percent$$00000010  c_w.l(_printf_llo.o)(c_w.l)
    0x00000208   0x00000006   Code   RO         3229    .ARM.Collect$$_printf_percent$$00000011  c_w.l(_printf_llx.o)(c_w.l)
    0x0000020e   0x0000000a   Code   RO         3225    .ARM.Collect$$_printf_percent$$00000012  c_w.l(_printf_l.o)(c_w.l)
    0x00000218   0x00000006   Code   RO         3124    .ARM.Collect$$_printf_percent$$00000013  c_w.l(_printf_c.o)(c_w.l)
    0x0000021e   0x00000006   Code   RO         3125    .ARM.Collect$$_printf_percent$$00000014  c_w.l(_printf_s.o)(c_w.l)
    0x00000224   0x00000006   Code   RO         3226    .ARM.Collect$$_printf_percent$$00000015  c_w.l(_printf_lc.o)(c_w.l)
    0x0000022a   0x00000006   Code   RO         3227    .ARM.Collect$$_printf_percent$$00000016  c_w.l(_printf_ls.o)(c_w.l)
    0x00000230   0x00000004   Code   RO         3220    .ARM.Collect$$_printf_percent$$00000017  c_w.l(_printf_percent_end.o)(c_w.l)
    0x00000234   0x00000006   Code   RO         3389    .ARM.Collect$$libinit$$00000000  c_w.l(libinit.o)(c_w.l)
    0x0000023a   0x00000008   Code   RO         3235    .ARM.Collect$$libinit$$00000001  c_w.l(libinit2.o)(c_w.l)
    0x00000242   0x00000000   Code   RO         3237    .ARM.Collect$$libinit$$00000006  c_w.l(libinit2.o)(c_w.l)
    0x00000242   0x00000000   Code   RO         3239    .ARM.Collect$$libinit$$00000008  c_w.l(libinit2.o)(c_w.l)
    0x00000242   0x00000000   Code   RO         3241    .ARM.Collect$$libinit$$0000000A  c_w.l(libinit2.o)(c_w.l)
    0x00000242   0x00000006   Code   RO         3242    .ARM.Collect$$libinit$$0000000B  c_w.l(libinit2.o)(c_w.l)
    0x00000248   0x00000000   Code   RO         3244    .ARM.Collect$$libinit$$0000000D  c_w.l(libinit2.o)(c_w.l)
    0x00000248   0x0000000c   Code   RO         3245    .ARM.Collect$$libinit$$0000000E  c_w.l(libinit2.o)(c_w.l)
    0x00000254   0x00000000   Code   RO         3246    .ARM.Collect$$libinit$$0000000F  c_w.l(libinit2.o)(c_w.l)
    0x00000254   0x00000000   Code   RO         3248    .ARM.Collect$$libinit$$00000011  c_w.l(libinit2.o)(c_w.l)
    0x00000254   0x0000000a   Code   RO         3249    .ARM.Collect$$libinit$$00000012  c_w.l(libinit2.o)(c_w.l)
    0x0000025e   0x00000000   Code   RO         3250    .ARM.Collect$$libinit$$00000013  c_w.l(libinit2.o)(c_w.l)
    0x0000025e   0x00000000   Code   RO         3252    .ARM.Collect$$libinit$$00000015  c_w.l(libinit2.o)(c_w.l)
    0x0000025e   0x00000000   Code   RO         3254    .ARM.Collect$$libinit$$00000017  c_w.l(libinit2.o)(c_w.l)
    0x0000025e   0x00000000   Code   RO         3256    .ARM.Collect$$libinit$$00000019  c_w.l(libinit2.o)(c_w.l)
    0x0000025e   0x00000000   Code   RO         3258    .ARM.Collect$$libinit$$0000001B  c_w.l(libinit2.o)(c_w.l)
    0x0000025e   0x00000000   Code   RO         3260    .ARM.Collect$$libinit$$0000001D  c_w.l(libinit2.o)(c_w.l)
    0x0000025e   0x00000000   Code   RO         3262    .ARM.Collect$$libinit$$0000001F  c_w.l(libinit2.o)(c_w.l)
    0x0000025e   0x00000000   Code   RO         3264    .ARM.Collect$$libinit$$00000021  c_w.l(libinit2.o)(c_w.l)
    0x0000025e   0x00000000   Code   RO         3268    .ARM.Collect$$libinit$$00000028  c_w.l(libinit2.o)(c_w.l)
    0x0000025e   0x00000000   Code   RO         3270    .ARM.Collect$$libinit$$0000002A  c_w.l(libinit2.o)(c_w.l)
    0x0000025e   0x00000000   Code   RO         3272    .ARM.Collect$$libinit$$0000002C  c_w.l(libinit2.o)(c_w.l)
    0x0000025e   0x00000000   Code   RO         3274    .ARM.Collect$$libinit$$0000002E  c_w.l(libinit2.o)(c_w.l)
    0x0000025e   0x00000002   Code   RO         3275    .ARM.Collect$$libinit$$0000002F  c_w.l(libinit2.o)(c_w.l)
    0x00000260   0x00000002   Code   RO         3460    .ARM.Collect$$libshutdown$$00000000  c_w.l(libshutdown.o)(c_w.l)
    0x00000262   0x00000000   Code   RO         3412    .ARM.Collect$$libshutdown$$00000003  c_w.l(libshutdown2.o)(c_w.l)
    0x00000262   0x00000000   Code   RO         3415    .ARM.Collect$$libshutdown$$00000006  c_w.l(libshutdown2.o)(c_w.l)
    0x00000262   0x00000000   Code   RO         3418    .ARM.Collect$$libshutdown$$00000009  c_w.l(libshutdown2.o)(c_w.l)
    0x00000262   0x00000000   Code   RO         3420    .ARM.Collect$$libshutdown$$0000000B  c_w.l(libshutdown2.o)(c_w.l)
    0x00000262   0x00000000   Code   RO         3423    .ARM.Collect$$libshutdown$$0000000E  c_w.l(libshutdown2.o)(c_w.l)
    0x00000262   0x00000002   Code   RO         3424    .ARM.Collect$$libshutdown$$0000000F  c_w.l(libshutdown2.o)(c_w.l)
    0x00000264   0x00000000   Code   RO         3159    .ARM.Collect$$rtentry$$00000000  c_w.l(rtentry.o)(c_w.l)
    0x00000264   0x00000000   Code   RO         3282    .ARM.Collect$$rtentry$$00000002  c_w.l(rtentry2.o)(c_w.l)
    0x00000264   0x00000006   Code   RO         3297    .ARM.Collect$$rtentry$$00000004  c_w.l(rtentry4.o)(c_w.l)
    0x0000026a   0x00000000   Code   RO         3284    .ARM.Collect$$rtentry$$00000009  c_w.l(rtentry2.o)(c_w.l)
    0x0000026a   0x00000004   Code   RO         3285    .ARM.Collect$$rtentry$$0000000A  c_w.l(rtentry2.o)(c_w.l)
    0x0000026e   0x00000000   Code   RO         3287    .ARM.Collect$$rtentry$$0000000C  c_w.l(rtentry2.o)(c_w.l)
    0x0000026e   0x00000008   Code   RO         3288    .ARM.Collect$$rtentry$$0000000D  c_w.l(rtentry2.o)(c_w.l)
    0x00000276   0x00000002   Code   RO         3395    .ARM.Collect$$rtexit$$00000000  c_w.l(rtexit.o)(c_w.l)
    0x00000278   0x00000000   Code   RO         3428    .ARM.Collect$$rtexit$$00000002  c_w.l(rtexit2.o)(c_w.l)
    0x00000278   0x00000004   Code   RO         3429    .ARM.Collect$$rtexit$$00000003  c_w.l(rtexit2.o)(c_w.l)
    0x0000027c   0x00000006   Code   RO         3430    .ARM.Collect$$rtexit$$00000004  c_w.l(rtexit2.o)(c_w.l)
    0x00000282   0x00000002   PAD
    0x00000284   0x0000012a   Code   RO         1926    .emb_text           os_cpu_c.o
    0x000003ae   0x00000002   PAD
    0x000003b0   0x00000000   Code   RO         3301    .emb_text           c_w.l(maybetermalloc1.o)(c_w.l)
    0x000003b0   0x00000190   Code   RO            1    .text               main.o
    0x00000540   0x00004498   Code   RO          212    .text               business.o
    0x000049d8   0x0000905c   Code   RO          243    .text               maintain.o
    0x0000da34   0x00002220   Code   RO          266    .text               common.o
    0x0000fc54   0x00003dcc   Code   RO          302    .text               channel.o
    0x00013a20   0x00001214   Code   RO          321    .text               lifttable.o
    0x00014c34   0x00001e98   Code   RO          338    .text               acdc.o
    0x00016acc   0x00000408   Code   RO          355    .text               acdcapi.o
    0x00016ed4   0x00000434   Code   RO          533    .text               billaccepterapi.o
    0x00017308   0x0000019c   Code   RO          545    .text               coinaccepterapi .o
    0x000174a4   0x00000098   Code   RO          557    .text               tuibiapi.o
    0x0001753c   0x000006f8   Code   RO          569    .text               checkdevicestate.o
    0x00017c34   0x000008b4   Code   RO          584    .text               logapi.o
    0x000184e8   0x000002ac   Code   RO          606    .text               traceapi.o
    0x00018794   0x00001e88   Code   RO          625    .text               pccomapi.o
    0x0001a61c   0x000002f8   Code   RO          643    .text               lifttableapi.o
    0x0001a914   0x00000834   Code   RO          657    .text               selectkeyapi.o
    0x0001b148   0x000031f0   Code   RO          669    .text               channelapi.o
    0x0001e338   0x000010b8   Code   RO          690    .text               changerapi.o
    0x0001f3f0   0x000004bc   Code   RO          709    .text               readerapi.o
    0x0001f8ac   0x00001068   Code   RO          721    .text               zhihuiapi.o
    0x00020914   0x0000180c   Code   RO          744    .text               gprsapi.o
    0x00022120   0x00002788   Code   RO          763    .text               hefanguiapi.o
    0x000248a8   0x00000518   Code   RO          784    .text               colapi.o
    0x00024dc0   0x00000f14   Code   RO          812    .text               taskdevice.o
    0x00025cd4   0x00000104   Code   RO         1003    .text               mdb_uart2.o
    0x00025dd8   0x00000300   Code   RO         1018    .text               evb_uart2.o
    0x000260d8   0x00001bf4   Code   RO         1033    .text               billaccepter.o
    0x00027ccc   0x00000964   Code   RO         1052    .text               coinaccepter .o
    0x00028630   0x00000c88   Code   RO         1070    .text               mdbreader.o
    0x000292b8   0x00000734   Code   RO         1082    .text               lifttabledriver.o
    0x000299ec   0x00000094   Code   RO         1101    .text               acdcdriver.o
    0x00029a80   0x00000180   Code   RO         1115    .text               channeldriver.o
    0x00029c00   0x00000400   Code   RO         1133    .text               hopperdriver.o
    0x0002a000   0x000002f4   Code   RO         1156    .text               mdbchanger.o
    0x0002a2f4   0x00000f5c   Code   RO         1189    .text               taskuart3device.o
    0x0002b250   0x00001ab8   Code   RO         1380    .text               zhihuipc.o
    0x0002cd08   0x00005ba4   Code   RO         1403    .text               ubprotocol.o
    0x000328ac   0x00001fc8   Code   RO         1420    .text               vmc_gprs_pc.o
    0x00034874   0x00001904   Code   RO         1444    .text               ubprotocol_simple.o
    0x00036178   0x000003d0   Code   RO         1463    .text               selectkey.o
    0x00036548   0x00000354   Code   RO         1648    .text               taskuart1device.o
    0x0003689c   0x00000358   Code   RO         1664    .text               xmt.o
    0x00036bf4   0x0000034c   Code   RO         1683    .text               hefangui.o
    0x00036f40   0x00001444   Code   RO         1699    .text               fs_billchanger.o
    0x00038384   0x000003dc   Code   RO         1726    .text               uart2.o
    0x00038760   0x000001d0   Code   RO         1742    .text               uart0.o
    0x00038930   0x00000234   Code   RO         1758    .text               uart1.o
    0x00038b64   0x000001f8   Code   RO         1774    .text               uart3.o
    0x00038d5c   0x0000010c   Code   RO         1790    .text               rtc.o
    0x00038e68   0x000003cc   Code   RO         1802    .text               i2c.o
    0x00039234   0x00001144   Code   RO         1817    .text               lcd.o
    0x0003a378   0x00000584   Code   RO         1838    .text               key.o
    0x0003a8fc   0x00000308   Code   RO         1855    .text               pcoin.o
    0x0003ac04   0x00000344   Code   RO         1871    .text               timer.o
    0x0003af48   0x00000070   Code   RO         1887    .text               buzzer.o
    0x0003afb8   0x0000039c   Code   RO         1899    .text               at45db161d.o
    0x0003b354   0x0000013c   Code   RO         1911    .text               gprs_uart.o
    0x0003b490   0x000000f0   Code   RO         1927    .text               os_cpu_c.o
    0x0003b580   0x00000740   Code   RO         2112    .text               os_core.o
    0x0003bcc0   0x00000674   Code   RO         2144    .text               os_flag.o
    0x0003c334   0x00000300   Code   RO         2163    .text               os_mbox.o
    0x0003c634   0x00000180   Code   RO         2175    .text               os_mem.o
    0x0003c7b4   0x00000194   Code   RO         2187    .text               os_time.o
    0x0003c948   0x000005fc   Code   RO         2199    .text               os_task.o
    0x0003cf44   0x00000288   Code   RO         2211    .text               os_sem.o
    0x0003d1cc   0x000004ec   Code   RO         2223    .text               os_q.o
    0x0003d6b8   0x00000078   Code   RO         2247    .text               lpc1700pincfg.o
    0x0003d730   0x000001a4   Code   RO         2425    .text               target.o
    0x0003d8d4   0x000006de   Code   RO         2450    .text               zy_if.o
    0x0003dfb2   0x00000086   Code   RO         2465    .text               rt_sys_c.o
    0x0003e038   0x000033b4   Code   RO         2654    .text               taskuart0device.o
    0x000413ec   0x00000002   Code   RO         2844    .text               uCOS-II hook.lib(osinithookbegin.o)(uCOS-II hook.lib)
    0x000413ee   0x00000002   Code   RO         2905    .text               uCOS-II hook.lib(osinithookend.o)(uCOS-II hook.lib)
    0x000413f0   0x00000004   Code   RO         2917    .text               uCOS-II hook.lib(ostaskcreatehook.o)(uCOS-II hook.lib)
    0x000413f4   0x00000004   Code   RO         2929    .text               uCOS-II hook.lib(ostaskdelhook.o)(uCOS-II hook.lib)
    0x000413f8   0x00000002   Code   RO         2941    .text               uCOS-II hook.lib(ostaskidlehook.o)(uCOS-II hook.lib)
    0x000413fa   0x00000002   Code   RO         2953    .text               uCOS-II hook.lib(ostaskstathook.o)(uCOS-II hook.lib)
    0x000413fc   0x00000002   Code   RO         2965    .text               uCOS-II hook.lib(ostaskswhook.o)(uCOS-II hook.lib)
    0x000413fe   0x00000004   Code   RO         2977    .text               uCOS-II hook.lib(ostcbinithook.o)(uCOS-II hook.lib)
    0x00041402   0x00000002   Code   RO         2989    .text               uCOS-II hook.lib(ostimetickhook.o)(uCOS-II hook.lib)
    0x00041404   0x00000002   Code   RO         3003    .text               c_w.l(use_no_semi.o)(c_w.l)
    0x00041406   0x00000064   Code   RO         3009    .text               c_w.l(h1_alloc.o)(c_w.l)
    0x0004146a   0x0000004e   Code   RO         3011    .text               c_w.l(h1_free.o)(c_w.l)
    0x000414b8   0x00000024   Code   RO         3067    .text               c_w.l(c89vsprintf.o)(c_w.l)
    0x000414dc   0x0000002c   Code   RO         3069    .text               c_w.l(__2sprintf.o)(c_w.l)
    0x00041508   0x00000038   Code   RO         3071    .text               c_w.l(__2snprintf.o)(c_w.l)
    0x00041540   0x00000050   Code   RO         3079    .text               c_w.l(_printf_pad.o)(c_w.l)
    0x00041590   0x00000052   Code   RO         3081    .text               c_w.l(_printf_str.o)(c_w.l)
    0x000415e2   0x00000002   PAD
    0x000415e4   0x00000074   Code   RO         3083    .text               c_w.l(_printf_dec.o)(c_w.l)
    0x00041658   0x0000009c   Code   RO         3103    .text               c_w.l(_printf_hex_int_ll_ptr.o)(c_w.l)
    0x000416f4   0x0000019c   Code   RO         3121    .text               c_w.l(__printf_flags_ss_wp.o)(c_w.l)
    0x00041890   0x00000024   Code   RO         3129    .text               c_w.l(strncat.o)(c_w.l)
    0x000418b4   0x00000024   Code   RO         3131    .text               c_w.l(strstr.o)(c_w.l)
    0x000418d8   0x00000048   Code   RO         3133    .text               c_w.l(strcpy.o)(c_w.l)
    0x00041920   0x0000003e   Code   RO         3135    .text               c_w.l(strlen.o)(c_w.l)
    0x0004195e   0x0000008c   Code   RO         3137    .text               c_w.l(strncmp.o)(c_w.l)
    0x000419ea   0x00000018   Code   RO         3139    .text               c_w.l(strcat.o)(c_w.l)
    0x00041a02   0x0000008a   Code   RO         3141    .text               c_w.l(rt_memcpy_v6.o)(c_w.l)
    0x00041a8c   0x00000064   Code   RO         3143    .text               c_w.l(rt_memcpy_w.o)(c_w.l)
    0x00041af0   0x00000010   Code   RO         3145    .text               c_w.l(aeabi_memset.o)(c_w.l)
    0x00041b00   0x00000044   Code   RO         3147    .text               c_w.l(rt_memclr.o)(c_w.l)
    0x00041b44   0x0000004e   Code   RO         3149    .text               c_w.l(rt_memclr_w.o)(c_w.l)
    0x00041b92   0x00000056   Code   RO         3151    .text               c_w.l(strncpy.o)(c_w.l)
    0x00041be8   0x000001a0   Code   RO         3153    .text               c_w.l(mktime.o)(c_w.l)
    0x00041d88   0x0000000c   Code   RO         3164    .text               c_w.l(rt_heap_descriptor_intlibspace.o)(c_w.l)
    0x00041d94   0x00000004   Code   RO         3166    .text               c_w.l(hguard.o)(c_w.l)
    0x00041d98   0x0000008a   Code   RO         3168    .text               c_w.l(init_alloc.o)(c_w.l)
    0x00041e22   0x0000000e   Code   RO         3172    .text               c_w.l(h1_init.o)(c_w.l)
    0x00041e30   0x00000024   Code   RO         3186    .text               c_w.l(_printf_truncate.o)(c_w.l)
    0x00041e54   0x000000b4   Code   RO         3188    .text               c_w.l(_printf_intcommon.o)(c_w.l)
    0x00041f08   0x0000002a   Code   RO         3190    .text               c_w.l(_printf_charcount.o)(c_w.l)
    0x00041f32   0x00000002   PAD
    0x00041f34   0x00000030   Code   RO         3192    .text               c_w.l(_printf_char_common.o)(c_w.l)
    0x00041f64   0x0000000a   Code   RO         3194    .text               c_w.l(_sputc.o)(c_w.l)
    0x00041f6e   0x00000010   Code   RO         3196    .text               c_w.l(_snputc.o)(c_w.l)
    0x00041f7e   0x0000002c   Code   RO         3198    .text               c_w.l(_printf_char.o)(c_w.l)
    0x00041faa   0x00000002   PAD
    0x00041fac   0x000000bc   Code   RO         3200    .text               c_w.l(_printf_wctomb.o)(c_w.l)
    0x00042068   0x00000078   Code   RO         3203    .text               c_w.l(_printf_longlong_dec.o)(c_w.l)
    0x000420e0   0x00000078   Code   RO         3209    .text               c_w.l(_printf_oct_int_ll.o)(c_w.l)
    0x00042158   0x00000010   Code   RO         3231    .text               c_w.l(rtudiv10.o)(c_w.l)
    0x00042168   0x00000008   Code   RO         3278    .text               c_w.l(libspace.o)(c_w.l)
    0x00042170   0x00000032   Code   RO         3305    .text               c_w.l(h1_extend.o)(c_w.l)
    0x000421a2   0x0000008a   Code   RO         3309    .text               c_w.l(lludiv10.o)(c_w.l)
    0x0004222c   0x0000040e   Code   RO         3311    .text               c_w.l(_printf_fp_dec.o)(c_w.l)
    0x0004263a   0x0000002c   Code   RO         3315    .text               c_w.l(_printf_wchar.o)(c_w.l)
    0x00042666   0x00000040   Code   RO         3317    .text               c_w.l(_wcrtomb.o)(c_w.l)
    0x000426a6   0x0000000e   Code   RO         3319    .text               c_w.l(defsig_rtmem_outer.o)(c_w.l)
    0x000426b4   0x0000004c   Code   RO         3323    .text               c_w.l(heapauxa.o)(c_w.l)
    0x00042700   0x0000004a   Code   RO         3330    .text               c_w.l(sys_stackheap_outer.o)(c_w.l)
    0x0004274a   0x00000002   PAD
    0x0004274c   0x00000010   Code   RO         3332    .text               c_w.l(rt_ctype_table.o)(c_w.l)
    0x0004275c   0x0000000c   Code   RO         3339    .text               c_w.l(rt_locale_intlibspace.o)(c_w.l)
    0x00042768   0x0000007c   Code   RO         3343    .text               c_w.l(_printf_fp_infnan.o)(c_w.l)
    0x000427e4   0x000000ec   Code   RO         3345    .text               c_w.l(bigflt0.o)(c_w.l)
    0x000428d0   0x0000000c   Code   RO         3373    .text               c_w.l(exit.o)(c_w.l)
    0x000428dc   0x0000000a   Code   RO         3375    .text               c_w.l(defsig_exit.o)(c_w.l)
    0x000428e6   0x00000002   PAD
    0x000428e8   0x0000004c   Code   RO         3377    .text               c_w.l(defsig_rtmem_inner.o)(c_w.l)
    0x00042934   0x00000032   Code   RO         3406    .text               c_w.l(defsig_general.o)(c_w.l)
    0x00042966   0x00000002   PAD
    0x00042968   0x00000080   Code   RO         3408    .text               c_w.l(strcmpv7m.o)(c_w.l)
    0x000429e8   0x0000000c   Code   RO         3438    .text               c_w.l(rt_fp_status_addr_intlibspace.o)(c_w.l)
    0x000429f4   0x0000003e   Code   RO         3348    CL$$btod_d2e        c_w.l(btod.o)(c_w.l)
    0x00042a32   0x00000046   Code   RO         3350    CL$$btod_d2e_denorm_low  c_w.l(btod.o)(c_w.l)
    0x00042a78   0x00000060   Code   RO         3349    CL$$btod_d2e_norm_op1  c_w.l(btod.o)(c_w.l)
    0x00042ad8   0x00000338   Code   RO         3358    CL$$btod_div_common  c_w.l(btod.o)(c_w.l)
    0x00042e10   0x000000c6   Code   RO         3355    CL$$btod_e2e        c_w.l(btod.o)(c_w.l)
    0x00042ed6   0x00000028   Code   RO         3352    CL$$btod_ediv       c_w.l(btod.o)(c_w.l)
    0x00042efe   0x00000028   Code   RO         3351    CL$$btod_emul       c_w.l(btod.o)(c_w.l)
    0x00042f26   0x00000244   Code   RO         3357    CL$$btod_mult_common  c_w.l(btod.o)(c_w.l)
    0x0004316a   0x00000028   Code   RO         3393    i.__ARM_fpclassify  m_ws.l(fpclassify.o)(m_ws.l)
    0x00043192   0x00000002   PAD
    0x00043194   0x0000002c   Code   RO         3371    locale$$code        c_w.l(lc_numeric_c.o)(c_w.l)
    0x000431c0   0x0000002c   Code   RO         3402    locale$$code        c_w.l(lc_ctype_c.o)(c_w.l)
    0x000431ec   0x00000008   Code   RO         2650  * rt_sys              rt_sys_s.o
    0x000431f4   0x0000000e   Code   RO         3425    x$fpl$fpinit        fz_ws.l(fpinit.o)(fz_ws.l)
    0x00043202   0x00000004   Code   RO         3276    x$fpl$printf1       fz_ws.l(printf1.o)(fz_ws.l)
    0x00043206   0x00000000   Code   RO         3392    x$fpl$usenofp       fz_ws.l(usenofp.o)(fz_ws.l)
    0x00043206   0x00000002   PAD
    0x00043208   0x0000004f   Data   RO          213    .constdata          business.o
    0x00043257   0x00000001   PAD
    0x00043258   0x00001990   Data   RO          244    .constdata          maintain.o
    0x00044be8   0x00000014   Data   RO          268    .constdata          common.o
    0x00044bfc   0x00000560   Data   RO          303    .constdata          channel.o
    0x0004515c   0x000002e8   Data   RO          322    .constdata          lifttable.o
    0x00045444   0x000001a0   Data   RO          339    .constdata          acdc.o
    0x000455e4   0x00000069   Data   RO          626    .constdata          pccomapi.o
    0x0004564d   0x00000001   PAD
    0x0004564e   0x000000c0   Data   RO          671    .constdata          channelapi.o
    0x0004570e   0x00000002   PAD
    0x00045710   0x00000358   Data   RO          764    .constdata          hefanguiapi.o
    0x00045a68   0x00000046   Data   RO          813    .constdata          taskdevice.o
    0x00045aae   0x00000002   PAD
    0x00045ab0   0x00000042   Data   RO         1035    .constdata          billaccepter.o
    0x00045af2   0x00000002   PAD
    0x00045af4   0x0000004b   Data   RO         1190    .constdata          taskuart3device.o
    0x00045b3f   0x00000001   PAD
    0x00045b40   0x00000054   Data   RO         1381    .constdata          zhihuipc.o
    0x00045b94   0x00000090   Data   RO         1404    .constdata          ubprotocol.o
    0x00045c24   0x0000012e   Data   RO         1422    .constdata          vmc_gprs_pc.o
    0x00045d52   0x00000002   PAD
    0x00045d54   0x0000006a   Data   RO         1700    .constdata          fs_billchanger.o
    0x00045dbe   0x0000b382   Data   RO         1818    .constdata          lcd.o
    0x00051140   0x00000010   Data   RO         1840    .constdata          key.o
    0x00051150   0x00000108   Data   RO         2114    .constdata          os_core.o
    0x00051258   0x00000028   Data   RO         3104    .constdata          c_w.l(_printf_hex_int_ll_ptr.o)(c_w.l)
    0x00051280   0x00000011   Data   RO         3122    .constdata          c_w.l(__printf_flags_ss_wp.o)(c_w.l)
    0x00051291   0x00000003   PAD
    0x00051294   0x00000008   Data   RO         3201    .constdata          c_w.l(_printf_wctomb.o)(c_w.l)
    0x0005129c   0x0000000c   Data   RO         3230    .constdata          c_w.l(_monlen.o)(c_w.l)
    0x000512a8   0x00000094   Data   RO         3346    .constdata          c_w.l(bigflt0.o)(c_w.l)
    0x0005133c   0x00002d37   Data   RO          245    .conststring        maintain.o
    0x00054073   0x00000dd5   Data   RO          288    .conststring        language.o
    0x00054e48   0x00000acf   Data   RO          304    .conststring        channel.o
    0x00055917   0x0000062f   Data   RO          323    .conststring        lifttable.o
    0x00055f46   0x000001fc   Data   RO          340    .conststring        acdc.o
    0x00056142   0x0000035e   Data   RO          765    .conststring        hefanguiapi.o
    0x000564a0   0x00000040   Data   RO         3461    Region$$Table       anon$$obj.o
    0x000564e0   0x0000001c   Data   RO         3370    locale$$data        c_w.l(lc_numeric_c.o)(c_w.l)
    0x000564fc   0x00000110   Data   RO         3401    locale$$data        c_w.l(lc_ctype_c.o)(c_w.l)


    Execution Region SRAM (Base: 0x10000000, Size: 0x00006a48, Max: 0xffffffff, ABSOLUTE, COMPRESSED[0x00000394])

    Base Addr    Size         Type   Attr      Idx    E Section Name        Object

    0x10000000   0x00000011   Data   RW            3    .data               main.o
    0x10000011   0x00000003   PAD
    0x10000014   0x00000038   Data   RW          214    .data               business.o
    0x1000004c   0x0000002c   Data   RW          246    .data               maintain.o
    0x10000078   0x000000a8   Data   RW          269    .data               common.o
    0x10000120   0x00000570   Data   RW          289    .data               language.o
    0x10000690   0x00000008   Data   RW          324    .data               lifttable.o
    0x10000698   0x00000007   Data   RW          341    .data               acdc.o
    0x1000069f   0x00000005   Data   RW          570    .data               checkdevicestate.o
    0x100006a4   0x00000002   Data   RW          627    .data               pccomapi.o
    0x100006a6   0x00000001   Data   RW          644    .data               lifttableapi.o
    0x100006a7   0x00000001   Data   RW          691    .data               changerapi.o
    0x100006a8   0x00000002   Data   RW          722    .data               zhihuiapi.o
    0x100006aa   0x00000002   Data   RW          766    .data               hefanguiapi.o
    0x100006ac   0x00000004   Data   RW          785    .data               colapi.o
    0x100006b0   0x00000004   Data   RW         1004    .data               mdb_uart2.o
    0x100006b4   0x00000010   Data   RW         1019    .data               evb_uart2.o
    0x100006c4   0x0000000a   Data   RW         1036    .data               billaccepter.o
    0x100006ce   0x00000002   Data   RW         1054    .data               coinaccepter .o
    0x100006d0   0x00000001   Data   RW         1102    .data               acdcdriver.o
    0x100006d1   0x00000005   Data   RW         1116    .data               channeldriver.o
    0x100006d6   0x00000001   Data   RW         1135    .data               hopperdriver.o
    0x100006d7   0x00000003   Data   RW         1382    .data               zhihuipc.o
    0x100006da   0x00000003   Data   RW         1405    .data               ubprotocol.o
    0x100006dd   0x00000003   Data   RW         1423    .data               vmc_gprs_pc.o
    0x100006e0   0x00000002   Data   RW         1445    .data               ubprotocol_simple.o
    0x100006e2   0x00000014   Data   RW         1465    .data               selectkey.o
    0x100006f6   0x00000002   PAD
    0x100006f8   0x0000002c   Data   RW         1701    .data               fs_billchanger.o
    0x10000724   0x00000005   Data   RW         1728    .data               uart2.o
    0x10000729   0x00000002   Data   RW         1744    .data               uart0.o
    0x1000072b   0x00000002   Data   RW         1759    .data               uart1.o
    0x1000072d   0x00000002   Data   RW         1776    .data               uart3.o
    0x1000072f   0x00000001   PAD
    0x10000730   0x00000016   Data   RW         1803    .data               i2c.o
    0x10000746   0x00000002   PAD
    0x10000748   0x0000000d   Data   RW         1841    .data               key.o
    0x10000755   0x00000003   PAD
    0x10000758   0x00000018   Data   RW         1857    .data               pcoin.o
    0x10000770   0x00000001   Data   RW         1872    .data               timer.o
    0x10000771   0x00000003   PAD
    0x10000774   0x00000004   Data   RW         1912    .data               gprs_uart.o
    0x10000778   0x00000004   Data   RW         1928    .data               os_cpu_c.o
    0x1000077c   0x0000004c   Data   RW         2115    .data               os_core.o
    0x100007c8   0x00000024   Data   RW         2656    .data               taskuart0device.o
    0x100007ec   0x00000004   Data   RW         3324    .data               c_w.l(heapauxa.o)(c_w.l)
    0x100007f0   0x00003ffc   Zero   RW            2    .bss                main.o
    0x100047ec   0x00000628   Zero   RW          267    .bss                common.o
    0x10004e14   0x00000014   Zero   RW          585    .bss                logapi.o
    0x10004e28   0x00000144   Zero   RW          670    .bss                channelapi.o
    0x10004f6c   0x00000034   Zero   RW          745    .bss                gprsapi.o
    0x10004fa0   0x00000040   Zero   RW         1034    .bss                billaccepter.o
    0x10004fe0   0x0000004a   Zero   RW         1053    .bss                coinaccepter .o
    0x1000502a   0x0000009c   Zero   RW         1083    .bss                lifttabledriver.o
    0x100050c6   0x00000002   PAD
    0x100050c8   0x0000003c   Zero   RW         1134    .bss                hopperdriver.o
    0x10005104   0x0000000a   Zero   RW         1421    .bss                vmc_gprs_pc.o
    0x1000510e   0x00000021   Zero   RW         1464    .bss                selectkey.o
    0x1000512f   0x00000001   PAD
    0x10005130   0x00000138   Zero   RW         1665    .bss                xmt.o
    0x10005268   0x00000080   Zero   RW         1684    .bss                hefangui.o
    0x100052e8   0x00000024   Zero   RW         1727    .bss                uart2.o
    0x1000530c   0x00000080   Zero   RW         1743    .bss                uart0.o
    0x1000538c   0x00000100   Zero   RW         1775    .bss                uart3.o
    0x1000548c   0x0000000c   Zero   RW         1839    .bss                key.o
    0x10005498   0x00000084   Zero   RW         1856    .bss                pcoin.o
    0x1000551c   0x000014b8   Zero   RW         2113    .bss                os_core.o
    0x100069d4   0x00000014   Zero   RW         2655    .bss                taskuart0device.o
    0x100069e8   0x00000060   Zero   RW         3279    .bss                c_w.l(libspace.o)(c_w.l)


    Execution Region RAM2 (Base: 0x2007c000, Size: 0x00004c5c, Max: 0x00008000, ABSOLUTE)

    Base Addr    Size         Type   Attr      Idx    E Section Name        Object

    0x2007c000   0x00000006   Data   RW          787    RAM2                colapi.o
    0x2007c006   0x00000002   PAD
    0x2007c008   0x000000d8   Zero   RW          270    RAM2                common.o
    0x2007c0e0   0x00000cc0   Zero   RW          672    RAM2                channelapi.o
    0x2007cda0   0x000002d8   Zero   RW          723    RAM2                zhihuiapi.o
    0x2007d078   0x000014b4   Zero   RW          767    RAM2                hefanguiapi.o
    0x2007e52c   0x00000088   Zero   RW          786    RAM2                colapi.o
    0x2007e5b4   0x00000690   Zero   RW         1406    RAM2                ubprotocol.o
    0x2007ec44   0x0000040c   Zero   RW         1446    RAM2                ubprotocol_simple.o
    0x2007f050   0x00000488   Zero   RW         1702    RAM2                fs_billchanger.o
    0x2007f4d8   0x00000100   Zero   RW         1760    RAM2                uart1.o
    0x2007f5d8   0x00001684   Zero   RW         2657    RAM2                taskuart0device.o


    Execution Region HEAP (Base: 0x20080c5c, Size: 0x00000000, Max: 0xffffffff, ABSOLUTE, UNINIT)

    Base Addr    Size         Type   Attr      Idx    E Section Name        Object

    0x20080c5c   0x00000000   Zero   RW         2651    Heap                rt_sys_s.o


==============================================================================

Image component sizes


      Code (inc. data)   RO Data    RW Data    ZI Data      Debug   Object Name

      7832        586        924          7          0          0   acdc.o
      1032        198          0          0          0          0   acdcapi.o
       148         52          0          1          0          0   acdcdriver.o
       924         22          0          0          0          0   at45db161d.o
      7156       1942         66         10         64          0   billaccepter.o
      1076        198          0          0          0          0   billaccepterapi.o
     17560       1666         79         56          0          0   business.o
       112          4          0          0          0          0   buzzer.o
      4280        768          0          1          0          0   changerapi.o
     15820       1134       4143          0          0          0   channel.o
     12784        390        192          0       3588          0   channelapi.o
       384          8          0          5          0          0   channeldriver.o
      1784        396          0          5          0          0   checkdevicestate.o
      2404        556          0          2         74          0   coinaccepter .o
       412         90          0          0          0          0   coinaccepterapi .o
      1304        112          0         10        136          0   colapi.o
      8736        430         20        168       1792          0   common.o
       768        108          0         16          0          0   evb_uart2.o
      5188       1368        106         44       1160          0   fs_billchanger.o
       316         10          0          4          0          0   gprs_uart.o
      6156       1572          0          0         52          0   gprsapi.o
       844        110          0          0        128          0   hefangui.o
     10120        370       1718          2       5300          0   hefanguiapi.o
      1024        152          0          1         60          0   hopperdriver.o
       972         44          0         22          0          0   i2c.o
      1412        120         16         13         12          0   key.o
         0          0       3541       1392          0          0   language.o
      4420         86      45954          0          0          0   lcd.o
      4628        726       2327          8          0          0   lifttable.o
       760        136          0          1          0          0   lifttableapi.o
      1844         90          0          0        156          0   lifttabledriver.o
      2228        114          0          0         20          0   logapi.o
       120         32          0          0          0          0   lpc1700pincfg.o
       400         64          0         17      16380          0   main.o
     36956       3182      18119         44          0          0   maintain.o
       260         14          0          4          0          0   mdb_uart2.o
       756        230          0          0          0          0   mdbchanger.o
      3208       1426          0          0          0          0   mdbreader.o
      1856        140        264         76       5304          0   os_core.o
       538         80          0          4          0          0   os_cpu_c.o
      1652         30          0          0          0          0   os_flag.o
       768         14          0          0          0          0   os_mbox.o
       384          8          0          0          0          0   os_mem.o
      1260         24          0          0          0          0   os_q.o
       648         12          0          0          0          0   os_sem.o
      1532         64          0          0          0          0   os_task.o
       404         20          0          0          0          0   os_time.o
      7816       1564        105          2          0          0   pccomapi.o
       776        102          0         24        132          0   pcoin.o
      1212        254          0          0          0          0   readerapi.o
       134          0          0          0          0          0   rt_sys_c.o
         8          4          0          0          0          0   rt_sys_s.o
       268         20          0          0          0          0   rtc.o
       976        220          0         20         33          0   selectkey.o
      2100        158          0          0          0          0   selectkeyapi.o
       420         56          0          0          0          0   target.o
      3860        862         70          0          0          0   taskdevice.o
     13236        366          0         36       5784          0   taskuart0device.o
       852        222          0          0          0          0   taskuart1device.o
      3932       1404         75          0          0          0   taskuart3device.o
       836         58          0          1          0          0   timer.o
       684          4          0          0          0          0   traceapi.o
       152         28          0          0          0          0   tuibiapi.o
       464         22          0          2        128          0   uart0.o
       564         28          0          2        256          0   uart1.o
       988         40          0          5         36          0   uart2.o
       504         24          0          2        256          0   uart3.o
     23460       1436        144          3       1680          0   ubprotocol.o
      6404       1156          0          2       1036          0   ubprotocol_simple.o
         0          0        204          0          0          0   vector_table.o
      8136       1986        302          3         10          0   vmc_gprs_pc.o
       856         86          0          0        312          0   xmt.o
      4200        710          0          2        728          0   zhihuiapi.o
      6840        942         84          3          0          0   zhihuipc.o
      1758         22          0          0          0          0   zy_if.o

    ----------------------------------------------------------------------
    266608      30672      78528       2036      44620          0   Object Totals
         0          0         64          0          0          0   (incl. Generated)
         2          0         11         16          3          3   (incl. Padding)

    ----------------------------------------------------------------------

      Code (inc. data)   RO Data    RW Data    ZI Data      Debug   Library Member Name

        56          6          0          0          0          0   __2snprintf.o
        44          6          0          0          0          0   __2sprintf.o
       100          0          0          0          0          0   __dclz77c.o
         8          0          0          0          0          0   __main.o
       412          6         17          0          0          0   __printf_flags_ss_wp.o
        52          8          0          0          0          0   __scatter.o
        26          0          0          0          0          0   __scatter_copy.o
        28          0          0          0          0          0   __scatter_zi.o
         0          0         12          0          0          0   _monlen.o
         6          0          0          0          0          0   _printf_a.o
         6          0          0          0          0          0   _printf_c.o
        44          0          0          0          0          0   _printf_char.o
        48          6          0          0          0          0   _printf_char_common.o
        42          0          0          0          0          0   _printf_charcount.o
         6          0          0          0          0          0   _printf_d.o
       116         18          0          0          0          0   _printf_dec.o
         6          0          0          0          0          0   _printf_e.o
         6          0          0          0          0          0   _printf_f.o
      1038          0          0          0          0          0   _printf_fp_dec.o
       124         16          0          0          0          0   _printf_fp_infnan.o
         6          0          0          0          0          0   _printf_g.o
       156          6         40          0          0          0   _printf_hex_int_ll_ptr.o
         6          0          0          0          0          0   _printf_i.o
       180          0          0          0          0          0   _printf_intcommon.o
        10          0          0          0          0          0   _printf_l.o
         6          0          0          0          0          0   _printf_lc.o
        10          0          0          0          0          0   _printf_ll.o
         6          0          0          0          0          0   _printf_lld.o
         6          0          0          0          0          0   _printf_lli.o
         6          0          0          0          0          0   _printf_llo.o
         6          0          0          0          0          0   _printf_llu.o
         6          0          0          0          0          0   _printf_llx.o
       120         16          0          0          0          0   _printf_longlong_dec.o
         6          0          0          0          0          0   _printf_ls.o
         6          0          0          0          0          0   _printf_n.o
         6          0          0          0          0          0   _printf_o.o
       120          8          0          0          0          0   _printf_oct_int_ll.o
         6          0          0          0          0          0   _printf_p.o
        80          0          0          0          0          0   _printf_pad.o
         0          0          0          0          0          0   _printf_percent.o
         4          0          0          0          0          0   _printf_percent_end.o
         6          0          0          0          0          0   _printf_s.o
        82          0          0          0          0          0   _printf_str.o
        36          0          0          0          0          0   _printf_truncate.o
         6          0          0          0          0          0   _printf_u.o
        44          0          0          0          0          0   _printf_wchar.o
       188          6          8          0          0          0   _printf_wctomb.o
         6          0          0          0          0          0   _printf_x.o
        16          0          0          0          0          0   _snputc.o
        10          0          0          0          0          0   _sputc.o
        64          0          0          0          0          0   _wcrtomb.o
        16          0          0          0          0          0   aeabi_memset.o
       236          6        148          0          0          0   bigflt0.o
      1910        128          0          0          0          0   btod.o
        36          4          0          0          0          0   c89vsprintf.o
        10          0          0          0          0          0   defsig_exit.o
        50          0          0          0          0          0   defsig_general.o
        76         56          0          0          0          0   defsig_rtmem_inner.o
        14          0          0          0          0          0   defsig_rtmem_outer.o
        12          0          0          0          0          0   exit.o
       100          0          0          0          0          0   h1_alloc.o
        50          0          0          0          0          0   h1_extend.o
        78          0          0          0          0          0   h1_free.o
        14          0          0          0          0          0   h1_init.o
        76         10          0          4          0          0   heapauxa.o
         4          0          0          0          0          0   hguard.o
       138          0          0          0          0          0   init_alloc.o
        44         10        272          0          0          0   lc_ctype_c.o
        44         10         28          0          0          0   lc_numeric_c.o
         6          0          0          0          0          0   libinit.o
        38          0          0          0          0          0   libinit2.o
         2          0          0          0          0          0   libshutdown.o
         2          0          0          0          0          0   libshutdown2.o
         8          4          0          0         96          0   libspace.o
       138          0          0          0          0          0   lludiv10.o
         0          0          0          0          0          0   maybetermalloc1.o
       416          8          0          0          0          0   mktime.o
        16          4          0          0          0          0   rt_ctype_table.o
        12          4          0          0          0          0   rt_fp_status_addr_intlibspace.o
        12          4          0          0          0          0   rt_heap_descriptor_intlibspace.o
        12          4          0          0          0          0   rt_locale_intlibspace.o
        68          0          0          0          0          0   rt_memclr.o
        78          0          0          0          0          0   rt_memclr_w.o
       138          0          0          0          0          0   rt_memcpy_v6.o
       100          0          0          0          0          0   rt_memcpy_w.o
         0          0          0          0          0          0   rtentry.o
        12          0          0          0          0          0   rtentry2.o
         6          0          0          0          0          0   rtentry4.o
         2          0          0          0          0          0   rtexit.o
        10          0          0          0          0          0   rtexit2.o
        16          0          0          0          0          0   rtudiv10.o
        24          0          0          0          0          0   strcat.o
       128          0          0          0          0          0   strcmpv7m.o
        72          0          0          0          0          0   strcpy.o
        62          0          0          0          0          0   strlen.o
        36          0          0          0          0          0   strncat.o
       140          0          0          0          0          0   strncmp.o
        86          0          0          0          0          0   strncpy.o
        36          0          0          0          0          0   strstr.o
        74          0          0          0          0          0   sys_stackheap_outer.o
         2          0          0          0          0          0   use_no_semi.o
        14          0          0          0          0          0   fpinit.o
         4          0          0          0          0          0   printf1.o
         0          0          0          0          0          0   usenofp.o
        40          0          0          0          0          0   fpclassify.o
         2          0          0          0          0          0   osinithookbegin.o
         2          0          0          0          0          0   osinithookend.o
         4          0          0          0          0          0   ostaskcreatehook.o
         4          0          0          0          0          0   ostaskdelhook.o
         2          0          0          0          0          0   ostaskidlehook.o
         2          0          0          0          0          0   ostaskstathook.o
         2          0          0          0          0          0   ostaskswhook.o
         4          0          0          0          0          0   ostcbinithook.o
         2          0          0          0          0          0   ostimetickhook.o

    ----------------------------------------------------------------------
      8140        354        528          4         96          0   Library Totals
        20          0          3          0          0          0   (incl. Padding)

    ----------------------------------------------------------------------

      Code (inc. data)   RO Data    RW Data    ZI Data      Debug   Library Name

      8038        354        525          4         96       6056   c_w.l
        18          0          0          0          0        144   fz_ws.l
        40          0          0          0          0         68   m_ws.l
        24          0          0          0          0      11506   uCOS-II hook.lib

    ----------------------------------------------------------------------
      8140        354        528          4         96          0   Library Totals

    ----------------------------------------------------------------------

==============================================================================


      Code (inc. data)   RO Data    RW Data    ZI Data      Debug   

    274748      31026      79056       2040      44716     739032   Grand Totals
    274748      31026      79056        924      44716     739032   ELF Image Totals (compressed)
    274748      31026      79056        924          0          0   ROM Totals

==============================================================================

    Total RO  Size (Code + RO Data)               353804 ( 345.51kB)
    Total RW  Size (RW Data + ZI Data)             46756 (  45.66kB)
    Total ROM Size (Code + RO Data + RW Data)     354728 ( 346.41kB)

==============================================================================

